
Discarded input sections

 .group         0x0000000000000000        0xc /Users/phamvanvu/HALAAcademy/01_Courses/AUTOSAR_Classic/MCAL/Pwm/exmaple/build/negative/case_06_invalid_channel/obj/main.o
 .group         0x0000000000000000        0xc /Users/phamvanvu/HALAAcademy/01_Courses/AUTOSAR_Classic/MCAL/Pwm/exmaple/build/negative/case_06_invalid_channel/obj/main.o
 .group         0x0000000000000000        0xc /Users/phamvanvu/HALAAcademy/01_Courses/AUTOSAR_Classic/MCAL/Pwm/exmaple/build/negative/case_06_invalid_channel/obj/main.o
 .group         0x0000000000000000        0xc /Users/phamvanvu/HALAAcademy/01_Courses/AUTOSAR_Classic/MCAL/Pwm/exmaple/build/negative/case_06_invalid_channel/obj/main.o
 .group         0x0000000000000000        0xc /Users/phamvanvu/HALAAcademy/01_Courses/AUTOSAR_Classic/MCAL/Pwm/exmaple/build/negative/case_06_invalid_channel/obj/main.o
 .group         0x0000000000000000        0xc /Users/phamvanvu/HALAAcademy/01_Courses/AUTOSAR_Classic/MCAL/Pwm/exmaple/build/negative/case_06_invalid_channel/obj/main.o
 .group         0x0000000000000000        0xc /Users/phamvanvu/HALAAcademy/01_Courses/AUTOSAR_Classic/MCAL/Pwm/exmaple/build/negative/case_06_invalid_channel/obj/main.o
 .group         0x0000000000000000        0xc /Users/phamvanvu/HALAAcademy/01_Courses/AUTOSAR_Classic/MCAL/Pwm/exmaple/build/negative/case_06_invalid_channel/obj/main.o
 .group         0x0000000000000000        0xc /Users/phamvanvu/HALAAcademy/01_Courses/AUTOSAR_Classic/MCAL/Pwm/exmaple/build/negative/case_06_invalid_channel/obj/main.o
 .group         0x0000000000000000        0xc /Users/phamvanvu/HALAAcademy/01_Courses/AUTOSAR_Classic/MCAL/Pwm/exmaple/build/negative/case_06_invalid_channel/obj/main.o
 .group         0x0000000000000000        0xc /Users/phamvanvu/HALAAcademy/01_Courses/AUTOSAR_Classic/MCAL/Pwm/exmaple/build/negative/case_06_invalid_channel/obj/main.o
 .group         0x0000000000000000        0xc /Users/phamvanvu/HALAAcademy/01_Courses/AUTOSAR_Classic/MCAL/Pwm/exmaple/build/negative/case_06_invalid_channel/obj/main.o
 .group         0x0000000000000000        0xc /Users/phamvanvu/HALAAcademy/01_Courses/AUTOSAR_Classic/MCAL/Pwm/exmaple/build/negative/case_06_invalid_channel/obj/main.o
 .group         0x0000000000000000        0xc /Users/phamvanvu/HALAAcademy/01_Courses/AUTOSAR_Classic/MCAL/Pwm/exmaple/build/negative/case_06_invalid_channel/obj/main.o
 .group         0x0000000000000000        0xc /Users/phamvanvu/HALAAcademy/01_Courses/AUTOSAR_Classic/MCAL/Pwm/exmaple/build/negative/case_06_invalid_channel/obj/main.o
 .group         0x0000000000000000        0xc /Users/phamvanvu/HALAAcademy/01_Courses/AUTOSAR_Classic/MCAL/Pwm/exmaple/build/negative/case_06_invalid_channel/obj/main.o
 .group         0x0000000000000000        0xc /Users/phamvanvu/HALAAcademy/01_Courses/AUTOSAR_Classic/MCAL/Pwm/exmaple/build/negative/case_06_invalid_channel/obj/main.o
 .comment       0x0000000000000000       0x4a /Users/phamvanvu/HALAAcademy/01_Courses/AUTOSAR_Classic/MCAL/Pwm/exmaple/build/negative/case_06_invalid_channel/obj/main.o
 .group         0x0000000000000000        0xc /Users/phamvanvu/HALAAcademy/01_Courses/AUTOSAR_Classic/MCAL/Pwm/exmaple/build/negative/case_06_invalid_channel/obj/pwm_example_port.o
 .group         0x0000000000000000        0xc /Users/phamvanvu/HALAAcademy/01_Courses/AUTOSAR_Classic/MCAL/Pwm/exmaple/build/negative/case_06_invalid_channel/obj/pwm_example_port.o
 .group         0x0000000000000000        0xc /Users/phamvanvu/HALAAcademy/01_Courses/AUTOSAR_Classic/MCAL/Pwm/exmaple/build/negative/case_06_invalid_channel/obj/pwm_example_port.o
 .group         0x0000000000000000        0xc /Users/phamvanvu/HALAAcademy/01_Courses/AUTOSAR_Classic/MCAL/Pwm/exmaple/build/negative/case_06_invalid_channel/obj/pwm_example_port.o
 .group         0x0000000000000000        0xc /Users/phamvanvu/HALAAcademy/01_Courses/AUTOSAR_Classic/MCAL/Pwm/exmaple/build/negative/case_06_invalid_channel/obj/pwm_example_port.o
 .group         0x0000000000000000        0xc /Users/phamvanvu/HALAAcademy/01_Courses/AUTOSAR_Classic/MCAL/Pwm/exmaple/build/negative/case_06_invalid_channel/obj/pwm_example_port.o
 .group         0x0000000000000000        0xc /Users/phamvanvu/HALAAcademy/01_Courses/AUTOSAR_Classic/MCAL/Pwm/exmaple/build/negative/case_06_invalid_channel/obj/pwm_example_port.o
 .group         0x0000000000000000        0xc /Users/phamvanvu/HALAAcademy/01_Courses/AUTOSAR_Classic/MCAL/Pwm/exmaple/build/negative/case_06_invalid_channel/obj/pwm_example_port.o
 .group         0x0000000000000000        0xc /Users/phamvanvu/HALAAcademy/01_Courses/AUTOSAR_Classic/MCAL/Pwm/exmaple/build/negative/case_06_invalid_channel/obj/pwm_example_port.o
 .group         0x0000000000000000        0xc /Users/phamvanvu/HALAAcademy/01_Courses/AUTOSAR_Classic/MCAL/Pwm/exmaple/build/negative/case_06_invalid_channel/obj/pwm_example_port.o
 .group         0x0000000000000000        0xc /Users/phamvanvu/HALAAcademy/01_Courses/AUTOSAR_Classic/MCAL/Pwm/exmaple/build/negative/case_06_invalid_channel/obj/pwm_example_port.o
 .group         0x0000000000000000        0xc /Users/phamvanvu/HALAAcademy/01_Courses/AUTOSAR_Classic/MCAL/Pwm/exmaple/build/negative/case_06_invalid_channel/obj/pwm_example_port.o
 .group         0x0000000000000000        0xc /Users/phamvanvu/HALAAcademy/01_Courses/AUTOSAR_Classic/MCAL/Pwm/exmaple/build/negative/case_06_invalid_channel/obj/pwm_example_port.o
 .group         0x0000000000000000        0xc /Users/phamvanvu/HALAAcademy/01_Courses/AUTOSAR_Classic/MCAL/Pwm/exmaple/build/negative/case_06_invalid_channel/obj/pwm_example_port.o
 .group         0x0000000000000000        0xc /Users/phamvanvu/HALAAcademy/01_Courses/AUTOSAR_Classic/MCAL/Pwm/exmaple/build/negative/case_06_invalid_channel/obj/pwm_example_port.o
 .group         0x0000000000000000        0xc /Users/phamvanvu/HALAAcademy/01_Courses/AUTOSAR_Classic/MCAL/Pwm/exmaple/build/negative/case_06_invalid_channel/obj/pwm_example_port.o
 .group         0x0000000000000000        0xc /Users/phamvanvu/HALAAcademy/01_Courses/AUTOSAR_Classic/MCAL/Pwm/exmaple/build/negative/case_06_invalid_channel/obj/pwm_example_port.o
 .debug_macro   0x0000000000000000      0xa66 /Users/phamvanvu/HALAAcademy/01_Courses/AUTOSAR_Classic/MCAL/Pwm/exmaple/build/negative/case_06_invalid_channel/obj/pwm_example_port.o
 .debug_macro   0x0000000000000000       0x5d /Users/phamvanvu/HALAAcademy/01_Courses/AUTOSAR_Classic/MCAL/Pwm/exmaple/build/negative/case_06_invalid_channel/obj/pwm_example_port.o
 .debug_macro   0x0000000000000000       0x22 /Users/phamvanvu/HALAAcademy/01_Courses/AUTOSAR_Classic/MCAL/Pwm/exmaple/build/negative/case_06_invalid_channel/obj/pwm_example_port.o
 .debug_macro   0x0000000000000000       0x8e /Users/phamvanvu/HALAAcademy/01_Courses/AUTOSAR_Classic/MCAL/Pwm/exmaple/build/negative/case_06_invalid_channel/obj/pwm_example_port.o
 .debug_macro   0x0000000000000000       0x51 /Users/phamvanvu/HALAAcademy/01_Courses/AUTOSAR_Classic/MCAL/Pwm/exmaple/build/negative/case_06_invalid_channel/obj/pwm_example_port.o
 .debug_macro   0x0000000000000000      0x103 /Users/phamvanvu/HALAAcademy/01_Courses/AUTOSAR_Classic/MCAL/Pwm/exmaple/build/negative/case_06_invalid_channel/obj/pwm_example_port.o
 .debug_macro   0x0000000000000000       0x6a /Users/phamvanvu/HALAAcademy/01_Courses/AUTOSAR_Classic/MCAL/Pwm/exmaple/build/negative/case_06_invalid_channel/obj/pwm_example_port.o
 .debug_macro   0x0000000000000000      0x1df /Users/phamvanvu/HALAAcademy/01_Courses/AUTOSAR_Classic/MCAL/Pwm/exmaple/build/negative/case_06_invalid_channel/obj/pwm_example_port.o
 .debug_macro   0x0000000000000000       0x1c /Users/phamvanvu/HALAAcademy/01_Courses/AUTOSAR_Classic/MCAL/Pwm/exmaple/build/negative/case_06_invalid_channel/obj/pwm_example_port.o
 .debug_macro   0x0000000000000000       0x22 /Users/phamvanvu/HALAAcademy/01_Courses/AUTOSAR_Classic/MCAL/Pwm/exmaple/build/negative/case_06_invalid_channel/obj/pwm_example_port.o
 .debug_macro   0x0000000000000000       0xbd /Users/phamvanvu/HALAAcademy/01_Courses/AUTOSAR_Classic/MCAL/Pwm/exmaple/build/negative/case_06_invalid_channel/obj/pwm_example_port.o
 .debug_macro   0x0000000000000000      0xd00 /Users/phamvanvu/HALAAcademy/01_Courses/AUTOSAR_Classic/MCAL/Pwm/exmaple/build/negative/case_06_invalid_channel/obj/pwm_example_port.o
 .debug_macro   0x0000000000000000     0x7eb3 /Users/phamvanvu/HALAAcademy/01_Courses/AUTOSAR_Classic/MCAL/Pwm/exmaple/build/negative/case_06_invalid_channel/obj/pwm_example_port.o
 .debug_macro   0x0000000000000000       0x10 /Users/phamvanvu/HALAAcademy/01_Courses/AUTOSAR_Classic/MCAL/Pwm/exmaple/build/negative/case_06_invalid_channel/obj/pwm_example_port.o
 .debug_macro   0x0000000000000000       0x35 /Users/phamvanvu/HALAAcademy/01_Courses/AUTOSAR_Classic/MCAL/Pwm/exmaple/build/negative/case_06_invalid_channel/obj/pwm_example_port.o
 .comment       0x0000000000000000       0x4a /Users/phamvanvu/HALAAcademy/01_Courses/AUTOSAR_Classic/MCAL/Pwm/exmaple/build/negative/case_06_invalid_channel/obj/pwm_example_port.o
 .group         0x0000000000000000        0xc /Users/phamvanvu/HALAAcademy/01_Courses/AUTOSAR_Classic/MCAL/Pwm/exmaple/build/negative/case_06_invalid_channel/obj/Pwm.o
 .group         0x0000000000000000        0xc /Users/phamvanvu/HALAAcademy/01_Courses/AUTOSAR_Classic/MCAL/Pwm/exmaple/build/negative/case_06_invalid_channel/obj/Pwm.o
 .group         0x0000000000000000        0xc /Users/phamvanvu/HALAAcademy/01_Courses/AUTOSAR_Classic/MCAL/Pwm/exmaple/build/negative/case_06_invalid_channel/obj/Pwm.o
 .group         0x0000000000000000        0xc /Users/phamvanvu/HALAAcademy/01_Courses/AUTOSAR_Classic/MCAL/Pwm/exmaple/build/negative/case_06_invalid_channel/obj/Pwm.o
 .group         0x0000000000000000        0xc /Users/phamvanvu/HALAAcademy/01_Courses/AUTOSAR_Classic/MCAL/Pwm/exmaple/build/negative/case_06_invalid_channel/obj/Pwm.o
 .group         0x0000000000000000        0xc /Users/phamvanvu/HALAAcademy/01_Courses/AUTOSAR_Classic/MCAL/Pwm/exmaple/build/negative/case_06_invalid_channel/obj/Pwm.o
 .group         0x0000000000000000        0xc /Users/phamvanvu/HALAAcademy/01_Courses/AUTOSAR_Classic/MCAL/Pwm/exmaple/build/negative/case_06_invalid_channel/obj/Pwm.o
 .group         0x0000000000000000        0xc /Users/phamvanvu/HALAAcademy/01_Courses/AUTOSAR_Classic/MCAL/Pwm/exmaple/build/negative/case_06_invalid_channel/obj/Pwm.o
 .group         0x0000000000000000        0xc /Users/phamvanvu/HALAAcademy/01_Courses/AUTOSAR_Classic/MCAL/Pwm/exmaple/build/negative/case_06_invalid_channel/obj/Pwm.o
 .group         0x0000000000000000        0xc /Users/phamvanvu/HALAAcademy/01_Courses/AUTOSAR_Classic/MCAL/Pwm/exmaple/build/negative/case_06_invalid_channel/obj/Pwm.o
 .group         0x0000000000000000        0xc /Users/phamvanvu/HALAAcademy/01_Courses/AUTOSAR_Classic/MCAL/Pwm/exmaple/build/negative/case_06_invalid_channel/obj/Pwm.o
 .group         0x0000000000000000        0xc /Users/phamvanvu/HALAAcademy/01_Courses/AUTOSAR_Classic/MCAL/Pwm/exmaple/build/negative/case_06_invalid_channel/obj/Pwm.o
 .group         0x0000000000000000        0xc /Users/phamvanvu/HALAAcademy/01_Courses/AUTOSAR_Classic/MCAL/Pwm/exmaple/build/negative/case_06_invalid_channel/obj/Pwm.o
 .group         0x0000000000000000        0xc /Users/phamvanvu/HALAAcademy/01_Courses/AUTOSAR_Classic/MCAL/Pwm/exmaple/build/negative/case_06_invalid_channel/obj/Pwm.o
 .group         0x0000000000000000        0xc /Users/phamvanvu/HALAAcademy/01_Courses/AUTOSAR_Classic/MCAL/Pwm/exmaple/build/negative/case_06_invalid_channel/obj/Pwm.o
 .group         0x0000000000000000        0xc /Users/phamvanvu/HALAAcademy/01_Courses/AUTOSAR_Classic/MCAL/Pwm/exmaple/build/negative/case_06_invalid_channel/obj/Pwm.o
 .group         0x0000000000000000        0xc /Users/phamvanvu/HALAAcademy/01_Courses/AUTOSAR_Classic/MCAL/Pwm/exmaple/build/negative/case_06_invalid_channel/obj/Pwm.o
 .group         0x0000000000000000        0xc /Users/phamvanvu/HALAAcademy/01_Courses/AUTOSAR_Classic/MCAL/Pwm/exmaple/build/negative/case_06_invalid_channel/obj/Pwm.o
 .group         0x0000000000000000        0xc /Users/phamvanvu/HALAAcademy/01_Courses/AUTOSAR_Classic/MCAL/Pwm/exmaple/build/negative/case_06_invalid_channel/obj/Pwm.o
 .debug_macro   0x0000000000000000      0xa66 /Users/phamvanvu/HALAAcademy/01_Courses/AUTOSAR_Classic/MCAL/Pwm/exmaple/build/negative/case_06_invalid_channel/obj/Pwm.o
 .debug_macro   0x0000000000000000       0x69 /Users/phamvanvu/HALAAcademy/01_Courses/AUTOSAR_Classic/MCAL/Pwm/exmaple/build/negative/case_06_invalid_channel/obj/Pwm.o
 .debug_macro   0x0000000000000000       0x5d /Users/phamvanvu/HALAAcademy/01_Courses/AUTOSAR_Classic/MCAL/Pwm/exmaple/build/negative/case_06_invalid_channel/obj/Pwm.o
 .debug_macro   0x0000000000000000       0x22 /Users/phamvanvu/HALAAcademy/01_Courses/AUTOSAR_Classic/MCAL/Pwm/exmaple/build/negative/case_06_invalid_channel/obj/Pwm.o
 .debug_macro   0x0000000000000000       0x8e /Users/phamvanvu/HALAAcademy/01_Courses/AUTOSAR_Classic/MCAL/Pwm/exmaple/build/negative/case_06_invalid_channel/obj/Pwm.o
 .debug_macro   0x0000000000000000       0x51 /Users/phamvanvu/HALAAcademy/01_Courses/AUTOSAR_Classic/MCAL/Pwm/exmaple/build/negative/case_06_invalid_channel/obj/Pwm.o
 .debug_macro   0x0000000000000000      0x103 /Users/phamvanvu/HALAAcademy/01_Courses/AUTOSAR_Classic/MCAL/Pwm/exmaple/build/negative/case_06_invalid_channel/obj/Pwm.o
 .debug_macro   0x0000000000000000       0x6a /Users/phamvanvu/HALAAcademy/01_Courses/AUTOSAR_Classic/MCAL/Pwm/exmaple/build/negative/case_06_invalid_channel/obj/Pwm.o
 .debug_macro   0x0000000000000000      0x1df /Users/phamvanvu/HALAAcademy/01_Courses/AUTOSAR_Classic/MCAL/Pwm/exmaple/build/negative/case_06_invalid_channel/obj/Pwm.o
 .debug_macro   0x0000000000000000       0x1c /Users/phamvanvu/HALAAcademy/01_Courses/AUTOSAR_Classic/MCAL/Pwm/exmaple/build/negative/case_06_invalid_channel/obj/Pwm.o
 .debug_macro   0x0000000000000000       0x22 /Users/phamvanvu/HALAAcademy/01_Courses/AUTOSAR_Classic/MCAL/Pwm/exmaple/build/negative/case_06_invalid_channel/obj/Pwm.o
 .debug_macro   0x0000000000000000       0xbd /Users/phamvanvu/HALAAcademy/01_Courses/AUTOSAR_Classic/MCAL/Pwm/exmaple/build/negative/case_06_invalid_channel/obj/Pwm.o
 .debug_macro   0x0000000000000000      0xd00 /Users/phamvanvu/HALAAcademy/01_Courses/AUTOSAR_Classic/MCAL/Pwm/exmaple/build/negative/case_06_invalid_channel/obj/Pwm.o
 .debug_macro   0x0000000000000000     0x7eb3 /Users/phamvanvu/HALAAcademy/01_Courses/AUTOSAR_Classic/MCAL/Pwm/exmaple/build/negative/case_06_invalid_channel/obj/Pwm.o
 .debug_macro   0x0000000000000000       0x10 /Users/phamvanvu/HALAAcademy/01_Courses/AUTOSAR_Classic/MCAL/Pwm/exmaple/build/negative/case_06_invalid_channel/obj/Pwm.o
 .debug_macro   0x0000000000000000       0x35 /Users/phamvanvu/HALAAcademy/01_Courses/AUTOSAR_Classic/MCAL/Pwm/exmaple/build/negative/case_06_invalid_channel/obj/Pwm.o
 .debug_macro   0x0000000000000000      0x70b /Users/phamvanvu/HALAAcademy/01_Courses/AUTOSAR_Classic/MCAL/Pwm/exmaple/build/negative/case_06_invalid_channel/obj/Pwm.o
 .comment       0x0000000000000000       0x4a /Users/phamvanvu/HALAAcademy/01_Courses/AUTOSAR_Classic/MCAL/Pwm/exmaple/build/negative/case_06_invalid_channel/obj/Pwm.o
 .group         0x0000000000000000        0xc /Users/phamvanvu/HALAAcademy/01_Courses/AUTOSAR_Classic/MCAL/Pwm/exmaple/build/negative/case_06_invalid_channel/obj/Pwm_Lcfg.o
 .group         0x0000000000000000        0xc /Users/phamvanvu/HALAAcademy/01_Courses/AUTOSAR_Classic/MCAL/Pwm/exmaple/build/negative/case_06_invalid_channel/obj/Pwm_Lcfg.o
 .group         0x0000000000000000        0xc /Users/phamvanvu/HALAAcademy/01_Courses/AUTOSAR_Classic/MCAL/Pwm/exmaple/build/negative/case_06_invalid_channel/obj/Pwm_Lcfg.o
 .group         0x0000000000000000        0xc /Users/phamvanvu/HALAAcademy/01_Courses/AUTOSAR_Classic/MCAL/Pwm/exmaple/build/negative/case_06_invalid_channel/obj/Pwm_Lcfg.o
 .group         0x0000000000000000        0xc /Users/phamvanvu/HALAAcademy/01_Courses/AUTOSAR_Classic/MCAL/Pwm/exmaple/build/negative/case_06_invalid_channel/obj/Pwm_Lcfg.o
 .group         0x0000000000000000        0xc /Users/phamvanvu/HALAAcademy/01_Courses/AUTOSAR_Classic/MCAL/Pwm/exmaple/build/negative/case_06_invalid_channel/obj/Pwm_Lcfg.o
 .group         0x0000000000000000        0xc /Users/phamvanvu/HALAAcademy/01_Courses/AUTOSAR_Classic/MCAL/Pwm/exmaple/build/negative/case_06_invalid_channel/obj/Pwm_Lcfg.o
 .group         0x0000000000000000        0xc /Users/phamvanvu/HALAAcademy/01_Courses/AUTOSAR_Classic/MCAL/Pwm/exmaple/build/negative/case_06_invalid_channel/obj/Pwm_Lcfg.o
 .group         0x0000000000000000        0xc /Users/phamvanvu/HALAAcademy/01_Courses/AUTOSAR_Classic/MCAL/Pwm/exmaple/build/negative/case_06_invalid_channel/obj/Pwm_Lcfg.o
 .group         0x0000000000000000        0xc /Users/phamvanvu/HALAAcademy/01_Courses/AUTOSAR_Classic/MCAL/Pwm/exmaple/build/negative/case_06_invalid_channel/obj/Pwm_Lcfg.o
 .group         0x0000000000000000        0xc /Users/phamvanvu/HALAAcademy/01_Courses/AUTOSAR_Classic/MCAL/Pwm/exmaple/build/negative/case_06_invalid_channel/obj/Pwm_Lcfg.o
 .group         0x0000000000000000        0xc /Users/phamvanvu/HALAAcademy/01_Courses/AUTOSAR_Classic/MCAL/Pwm/exmaple/build/negative/case_06_invalid_channel/obj/Pwm_Lcfg.o
 .group         0x0000000000000000        0xc /Users/phamvanvu/HALAAcademy/01_Courses/AUTOSAR_Classic/MCAL/Pwm/exmaple/build/negative/case_06_invalid_channel/obj/Pwm_Lcfg.o
 .group         0x0000000000000000        0xc /Users/phamvanvu/HALAAcademy/01_Courses/AUTOSAR_Classic/MCAL/Pwm/exmaple/build/negative/case_06_invalid_channel/obj/Pwm_Lcfg.o
 .group         0x0000000000000000        0xc /Users/phamvanvu/HALAAcademy/01_Courses/AUTOSAR_Classic/MCAL/Pwm/exmaple/build/negative/case_06_invalid_channel/obj/Pwm_Lcfg.o
 .group         0x0000000000000000        0xc /Users/phamvanvu/HALAAcademy/01_Courses/AUTOSAR_Classic/MCAL/Pwm/exmaple/build/negative/case_06_invalid_channel/obj/Pwm_Lcfg.o
 .group         0x0000000000000000        0xc /Users/phamvanvu/HALAAcademy/01_Courses/AUTOSAR_Classic/MCAL/Pwm/exmaple/build/negative/case_06_invalid_channel/obj/Pwm_Lcfg.o
 .group         0x0000000000000000        0xc /Users/phamvanvu/HALAAcademy/01_Courses/AUTOSAR_Classic/MCAL/Pwm/exmaple/build/negative/case_06_invalid_channel/obj/Pwm_Lcfg.o
 .group         0x0000000000000000        0xc /Users/phamvanvu/HALAAcademy/01_Courses/AUTOSAR_Classic/MCAL/Pwm/exmaple/build/negative/case_06_invalid_channel/obj/Pwm_Lcfg.o
 .group         0x0000000000000000        0xc /Users/phamvanvu/HALAAcademy/01_Courses/AUTOSAR_Classic/MCAL/Pwm/exmaple/build/negative/case_06_invalid_channel/obj/Pwm_Lcfg.o
 .group         0x0000000000000000        0xc /Users/phamvanvu/HALAAcademy/01_Courses/AUTOSAR_Classic/MCAL/Pwm/exmaple/build/negative/case_06_invalid_channel/obj/Pwm_Lcfg.o
 .group         0x0000000000000000        0xc /Users/phamvanvu/HALAAcademy/01_Courses/AUTOSAR_Classic/MCAL/Pwm/exmaple/build/negative/case_06_invalid_channel/obj/Pwm_Lcfg.o
 .group         0x0000000000000000        0xc /Users/phamvanvu/HALAAcademy/01_Courses/AUTOSAR_Classic/MCAL/Pwm/exmaple/build/negative/case_06_invalid_channel/obj/Pwm_Lcfg.o
 .group         0x0000000000000000        0xc /Users/phamvanvu/HALAAcademy/01_Courses/AUTOSAR_Classic/MCAL/Pwm/exmaple/build/negative/case_06_invalid_channel/obj/Pwm_Lcfg.o
 .group         0x0000000000000000        0xc /Users/phamvanvu/HALAAcademy/01_Courses/AUTOSAR_Classic/MCAL/Pwm/exmaple/build/negative/case_06_invalid_channel/obj/Pwm_Lcfg.o
 .group         0x0000000000000000        0xc /Users/phamvanvu/HALAAcademy/01_Courses/AUTOSAR_Classic/MCAL/Pwm/exmaple/build/negative/case_06_invalid_channel/obj/Pwm_Lcfg.o
 .group         0x0000000000000000        0xc /Users/phamvanvu/HALAAcademy/01_Courses/AUTOSAR_Classic/MCAL/Pwm/exmaple/build/negative/case_06_invalid_channel/obj/Pwm_Lcfg.o
 .group         0x0000000000000000        0xc /Users/phamvanvu/HALAAcademy/01_Courses/AUTOSAR_Classic/MCAL/Pwm/exmaple/build/negative/case_06_invalid_channel/obj/Pwm_Lcfg.o
 .group         0x0000000000000000        0xc /Users/phamvanvu/HALAAcademy/01_Courses/AUTOSAR_Classic/MCAL/Pwm/exmaple/build/negative/case_06_invalid_channel/obj/Pwm_Lcfg.o
 .group         0x0000000000000000        0xc /Users/phamvanvu/HALAAcademy/01_Courses/AUTOSAR_Classic/MCAL/Pwm/exmaple/build/negative/case_06_invalid_channel/obj/Pwm_Lcfg.o
 .group         0x0000000000000000        0xc /Users/phamvanvu/HALAAcademy/01_Courses/AUTOSAR_Classic/MCAL/Pwm/exmaple/build/negative/case_06_invalid_channel/obj/Pwm_Lcfg.o
 .group         0x0000000000000000        0xc /Users/phamvanvu/HALAAcademy/01_Courses/AUTOSAR_Classic/MCAL/Pwm/exmaple/build/negative/case_06_invalid_channel/obj/Pwm_Lcfg.o
 .group         0x0000000000000000        0xc /Users/phamvanvu/HALAAcademy/01_Courses/AUTOSAR_Classic/MCAL/Pwm/exmaple/build/negative/case_06_invalid_channel/obj/Pwm_Lcfg.o
 .group         0x0000000000000000        0xc /Users/phamvanvu/HALAAcademy/01_Courses/AUTOSAR_Classic/MCAL/Pwm/exmaple/build/negative/case_06_invalid_channel/obj/Pwm_Lcfg.o
 .group         0x0000000000000000        0xc /Users/phamvanvu/HALAAcademy/01_Courses/AUTOSAR_Classic/MCAL/Pwm/exmaple/build/negative/case_06_invalid_channel/obj/Pwm_Lcfg.o
 .group         0x0000000000000000        0xc /Users/phamvanvu/HALAAcademy/01_Courses/AUTOSAR_Classic/MCAL/Pwm/exmaple/build/negative/case_06_invalid_channel/obj/Pwm_Lcfg.o
 .group         0x0000000000000000        0xc /Users/phamvanvu/HALAAcademy/01_Courses/AUTOSAR_Classic/MCAL/Pwm/exmaple/build/negative/case_06_invalid_channel/obj/Pwm_Lcfg.o
 .group         0x0000000000000000        0xc /Users/phamvanvu/HALAAcademy/01_Courses/AUTOSAR_Classic/MCAL/Pwm/exmaple/build/negative/case_06_invalid_channel/obj/Pwm_Lcfg.o
 .group         0x0000000000000000        0xc /Users/phamvanvu/HALAAcademy/01_Courses/AUTOSAR_Classic/MCAL/Pwm/exmaple/build/negative/case_06_invalid_channel/obj/Pwm_Lcfg.o
 .group         0x0000000000000000        0xc /Users/phamvanvu/HALAAcademy/01_Courses/AUTOSAR_Classic/MCAL/Pwm/exmaple/build/negative/case_06_invalid_channel/obj/Pwm_Lcfg.o
 .group         0x0000000000000000        0xc /Users/phamvanvu/HALAAcademy/01_Courses/AUTOSAR_Classic/MCAL/Pwm/exmaple/build/negative/case_06_invalid_channel/obj/Pwm_Lcfg.o
 .group         0x0000000000000000        0xc /Users/phamvanvu/HALAAcademy/01_Courses/AUTOSAR_Classic/MCAL/Pwm/exmaple/build/negative/case_06_invalid_channel/obj/Pwm_Lcfg.o
 .group         0x0000000000000000        0xc /Users/phamvanvu/HALAAcademy/01_Courses/AUTOSAR_Classic/MCAL/Pwm/exmaple/build/negative/case_06_invalid_channel/obj/Pwm_Lcfg.o
 .debug_macro   0x0000000000000000      0xa66 /Users/phamvanvu/HALAAcademy/01_Courses/AUTOSAR_Classic/MCAL/Pwm/exmaple/build/negative/case_06_invalid_channel/obj/Pwm_Lcfg.o
 .debug_macro   0x0000000000000000       0x69 /Users/phamvanvu/HALAAcademy/01_Courses/AUTOSAR_Classic/MCAL/Pwm/exmaple/build/negative/case_06_invalid_channel/obj/Pwm_Lcfg.o
 .debug_macro   0x0000000000000000       0x5d /Users/phamvanvu/HALAAcademy/01_Courses/AUTOSAR_Classic/MCAL/Pwm/exmaple/build/negative/case_06_invalid_channel/obj/Pwm_Lcfg.o
 .debug_macro   0x0000000000000000       0x22 /Users/phamvanvu/HALAAcademy/01_Courses/AUTOSAR_Classic/MCAL/Pwm/exmaple/build/negative/case_06_invalid_channel/obj/Pwm_Lcfg.o
 .debug_macro   0x0000000000000000       0x8e /Users/phamvanvu/HALAAcademy/01_Courses/AUTOSAR_Classic/MCAL/Pwm/exmaple/build/negative/case_06_invalid_channel/obj/Pwm_Lcfg.o
 .debug_macro   0x0000000000000000       0x51 /Users/phamvanvu/HALAAcademy/01_Courses/AUTOSAR_Classic/MCAL/Pwm/exmaple/build/negative/case_06_invalid_channel/obj/Pwm_Lcfg.o
 .debug_macro   0x0000000000000000      0x103 /Users/phamvanvu/HALAAcademy/01_Courses/AUTOSAR_Classic/MCAL/Pwm/exmaple/build/negative/case_06_invalid_channel/obj/Pwm_Lcfg.o
 .debug_macro   0x0000000000000000       0x6a /Users/phamvanvu/HALAAcademy/01_Courses/AUTOSAR_Classic/MCAL/Pwm/exmaple/build/negative/case_06_invalid_channel/obj/Pwm_Lcfg.o
 .debug_macro   0x0000000000000000      0x1df /Users/phamvanvu/HALAAcademy/01_Courses/AUTOSAR_Classic/MCAL/Pwm/exmaple/build/negative/case_06_invalid_channel/obj/Pwm_Lcfg.o
 .debug_macro   0x0000000000000000       0x1c /Users/phamvanvu/HALAAcademy/01_Courses/AUTOSAR_Classic/MCAL/Pwm/exmaple/build/negative/case_06_invalid_channel/obj/Pwm_Lcfg.o
 .debug_macro   0x0000000000000000       0x22 /Users/phamvanvu/HALAAcademy/01_Courses/AUTOSAR_Classic/MCAL/Pwm/exmaple/build/negative/case_06_invalid_channel/obj/Pwm_Lcfg.o
 .debug_macro   0x0000000000000000       0xbd /Users/phamvanvu/HALAAcademy/01_Courses/AUTOSAR_Classic/MCAL/Pwm/exmaple/build/negative/case_06_invalid_channel/obj/Pwm_Lcfg.o
 .debug_macro   0x0000000000000000      0xd00 /Users/phamvanvu/HALAAcademy/01_Courses/AUTOSAR_Classic/MCAL/Pwm/exmaple/build/negative/case_06_invalid_channel/obj/Pwm_Lcfg.o
 .debug_macro   0x0000000000000000     0x7eb3 /Users/phamvanvu/HALAAcademy/01_Courses/AUTOSAR_Classic/MCAL/Pwm/exmaple/build/negative/case_06_invalid_channel/obj/Pwm_Lcfg.o
 .debug_macro   0x0000000000000000       0x10 /Users/phamvanvu/HALAAcademy/01_Courses/AUTOSAR_Classic/MCAL/Pwm/exmaple/build/negative/case_06_invalid_channel/obj/Pwm_Lcfg.o
 .debug_macro   0x0000000000000000       0x35 /Users/phamvanvu/HALAAcademy/01_Courses/AUTOSAR_Classic/MCAL/Pwm/exmaple/build/negative/case_06_invalid_channel/obj/Pwm_Lcfg.o
 .debug_macro   0x0000000000000000      0x70b /Users/phamvanvu/HALAAcademy/01_Courses/AUTOSAR_Classic/MCAL/Pwm/exmaple/build/negative/case_06_invalid_channel/obj/Pwm_Lcfg.o
 .comment       0x0000000000000000       0x4a /Users/phamvanvu/HALAAcademy/01_Courses/AUTOSAR_Classic/MCAL/Pwm/exmaple/build/negative/case_06_invalid_channel/obj/Pwm_Lcfg.o
 .group         0x0000000000000000        0xc /Users/phamvanvu/HALAAcademy/01_Courses/AUTOSAR_Classic/MCAL/Pwm/exmaple/build/negative/case_06_invalid_channel/obj/system_stm32f10x.o
 .group         0x0000000000000000        0xc /Users/phamvanvu/HALAAcademy/01_Courses/AUTOSAR_Classic/MCAL/Pwm/exmaple/build/negative/case_06_invalid_channel/obj/system_stm32f10x.o
 .group         0x0000000000000000        0xc /Users/phamvanvu/HALAAcademy/01_Courses/AUTOSAR_Classic/MCAL/Pwm/exmaple/build/negative/case_06_invalid_channel/obj/system_stm32f10x.o
 .group         0x0000000000000000        0xc /Users/phamvanvu/HALAAcademy/01_Courses/AUTOSAR_Classic/MCAL/Pwm/exmaple/build/negative/case_06_invalid_channel/obj/system_stm32f10x.o
 .group         0x0000000000000000        0xc /Users/phamvanvu/HALAAcademy/01_Courses/AUTOSAR_Classic/MCAL/Pwm/exmaple/build/negative/case_06_invalid_channel/obj/system_stm32f10x.o
 .group         0x0000000000000000        0xc /Users/phamvanvu/HALAAcademy/01_Courses/AUTOSAR_Classic/MCAL/Pwm/exmaple/build/negative/case_06_invalid_channel/obj/system_stm32f10x.o
 .group         0x0000000000000000        0xc /Users/phamvanvu/HALAAcademy/01_Courses/AUTOSAR_Classic/MCAL/Pwm/exmaple/build/negative/case_06_invalid_channel/obj/system_stm32f10x.o
 .group         0x0000000000000000        0xc /Users/phamvanvu/HALAAcademy/01_Courses/AUTOSAR_Classic/MCAL/Pwm/exmaple/build/negative/case_06_invalid_channel/obj/system_stm32f10x.o
 .group         0x0000000000000000        0xc /Users/phamvanvu/HALAAcademy/01_Courses/AUTOSAR_Classic/MCAL/Pwm/exmaple/build/negative/case_06_invalid_channel/obj/system_stm32f10x.o
 .group         0x0000000000000000        0xc /Users/phamvanvu/HALAAcademy/01_Courses/AUTOSAR_Classic/MCAL/Pwm/exmaple/build/negative/case_06_invalid_channel/obj/system_stm32f10x.o
 .group         0x0000000000000000        0xc /Users/phamvanvu/HALAAcademy/01_Courses/AUTOSAR_Classic/MCAL/Pwm/exmaple/build/negative/case_06_invalid_channel/obj/system_stm32f10x.o
 .group         0x0000000000000000        0xc /Users/phamvanvu/HALAAcademy/01_Courses/AUTOSAR_Classic/MCAL/Pwm/exmaple/build/negative/case_06_invalid_channel/obj/system_stm32f10x.o
 .group         0x0000000000000000        0xc /Users/phamvanvu/HALAAcademy/01_Courses/AUTOSAR_Classic/MCAL/Pwm/exmaple/build/negative/case_06_invalid_channel/obj/system_stm32f10x.o
 .group         0x0000000000000000        0xc /Users/phamvanvu/HALAAcademy/01_Courses/AUTOSAR_Classic/MCAL/Pwm/exmaple/build/negative/case_06_invalid_channel/obj/system_stm32f10x.o
 .group         0x0000000000000000        0xc /Users/phamvanvu/HALAAcademy/01_Courses/AUTOSAR_Classic/MCAL/Pwm/exmaple/build/negative/case_06_invalid_channel/obj/system_stm32f10x.o
 .debug_macro   0x0000000000000000      0xa66 /Users/phamvanvu/HALAAcademy/01_Courses/AUTOSAR_Classic/MCAL/Pwm/exmaple/build/negative/case_06_invalid_channel/obj/system_stm32f10x.o
 .debug_macro   0x0000000000000000       0x5d /Users/phamvanvu/HALAAcademy/01_Courses/AUTOSAR_Classic/MCAL/Pwm/exmaple/build/negative/case_06_invalid_channel/obj/system_stm32f10x.o
 .debug_macro   0x0000000000000000       0x22 /Users/phamvanvu/HALAAcademy/01_Courses/AUTOSAR_Classic/MCAL/Pwm/exmaple/build/negative/case_06_invalid_channel/obj/system_stm32f10x.o
 .debug_macro   0x0000000000000000       0x8e /Users/phamvanvu/HALAAcademy/01_Courses/AUTOSAR_Classic/MCAL/Pwm/exmaple/build/negative/case_06_invalid_channel/obj/system_stm32f10x.o
 .debug_macro   0x0000000000000000       0x51 /Users/phamvanvu/HALAAcademy/01_Courses/AUTOSAR_Classic/MCAL/Pwm/exmaple/build/negative/case_06_invalid_channel/obj/system_stm32f10x.o
 .debug_macro   0x0000000000000000      0x103 /Users/phamvanvu/HALAAcademy/01_Courses/AUTOSAR_Classic/MCAL/Pwm/exmaple/build/negative/case_06_invalid_channel/obj/system_stm32f10x.o
 .debug_macro   0x0000000000000000       0x6a /Users/phamvanvu/HALAAcademy/01_Courses/AUTOSAR_Classic/MCAL/Pwm/exmaple/build/negative/case_06_invalid_channel/obj/system_stm32f10x.o
 .debug_macro   0x0000000000000000      0x1df /Users/phamvanvu/HALAAcademy/01_Courses/AUTOSAR_Classic/MCAL/Pwm/exmaple/build/negative/case_06_invalid_channel/obj/system_stm32f10x.o
 .debug_macro   0x0000000000000000       0x1c /Users/phamvanvu/HALAAcademy/01_Courses/AUTOSAR_Classic/MCAL/Pwm/exmaple/build/negative/case_06_invalid_channel/obj/system_stm32f10x.o
 .debug_macro   0x0000000000000000       0x22 /Users/phamvanvu/HALAAcademy/01_Courses/AUTOSAR_Classic/MCAL/Pwm/exmaple/build/negative/case_06_invalid_channel/obj/system_stm32f10x.o
 .debug_macro   0x0000000000000000       0xbd /Users/phamvanvu/HALAAcademy/01_Courses/AUTOSAR_Classic/MCAL/Pwm/exmaple/build/negative/case_06_invalid_channel/obj/system_stm32f10x.o
 .debug_macro   0x0000000000000000      0xd00 /Users/phamvanvu/HALAAcademy/01_Courses/AUTOSAR_Classic/MCAL/Pwm/exmaple/build/negative/case_06_invalid_channel/obj/system_stm32f10x.o
 .debug_macro   0x0000000000000000     0x7eb3 /Users/phamvanvu/HALAAcademy/01_Courses/AUTOSAR_Classic/MCAL/Pwm/exmaple/build/negative/case_06_invalid_channel/obj/system_stm32f10x.o
 .debug_macro   0x0000000000000000       0x10 /Users/phamvanvu/HALAAcademy/01_Courses/AUTOSAR_Classic/MCAL/Pwm/exmaple/build/negative/case_06_invalid_channel/obj/system_stm32f10x.o
 .debug_macro   0x0000000000000000       0x35 /Users/phamvanvu/HALAAcademy/01_Courses/AUTOSAR_Classic/MCAL/Pwm/exmaple/build/negative/case_06_invalid_channel/obj/system_stm32f10x.o
 .comment       0x0000000000000000       0x4a /Users/phamvanvu/HALAAcademy/01_Courses/AUTOSAR_Classic/MCAL/Pwm/exmaple/build/negative/case_06_invalid_channel/obj/system_stm32f10x.o
 .group         0x0000000000000000        0xc /Users/phamvanvu/HALAAcademy/01_Courses/AUTOSAR_Classic/MCAL/Pwm/exmaple/build/negative/case_06_invalid_channel/obj/stm32f10x_rcc.o
 .group         0x0000000000000000        0xc /Users/phamvanvu/HALAAcademy/01_Courses/AUTOSAR_Classic/MCAL/Pwm/exmaple/build/negative/case_06_invalid_channel/obj/stm32f10x_rcc.o
 .group         0x0000000000000000        0xc /Users/phamvanvu/HALAAcademy/01_Courses/AUTOSAR_Classic/MCAL/Pwm/exmaple/build/negative/case_06_invalid_channel/obj/stm32f10x_rcc.o
 .group         0x0000000000000000        0xc /Users/phamvanvu/HALAAcademy/01_Courses/AUTOSAR_Classic/MCAL/Pwm/exmaple/build/negative/case_06_invalid_channel/obj/stm32f10x_rcc.o
 .group         0x0000000000000000        0xc /Users/phamvanvu/HALAAcademy/01_Courses/AUTOSAR_Classic/MCAL/Pwm/exmaple/build/negative/case_06_invalid_channel/obj/stm32f10x_rcc.o
 .group         0x0000000000000000        0xc /Users/phamvanvu/HALAAcademy/01_Courses/AUTOSAR_Classic/MCAL/Pwm/exmaple/build/negative/case_06_invalid_channel/obj/stm32f10x_rcc.o
 .group         0x0000000000000000        0xc /Users/phamvanvu/HALAAcademy/01_Courses/AUTOSAR_Classic/MCAL/Pwm/exmaple/build/negative/case_06_invalid_channel/obj/stm32f10x_rcc.o
 .group         0x0000000000000000        0xc /Users/phamvanvu/HALAAcademy/01_Courses/AUTOSAR_Classic/MCAL/Pwm/exmaple/build/negative/case_06_invalid_channel/obj/stm32f10x_rcc.o
 .group         0x0000000000000000        0xc /Users/phamvanvu/HALAAcademy/01_Courses/AUTOSAR_Classic/MCAL/Pwm/exmaple/build/negative/case_06_invalid_channel/obj/stm32f10x_rcc.o
 .group         0x0000000000000000        0xc /Users/phamvanvu/HALAAcademy/01_Courses/AUTOSAR_Classic/MCAL/Pwm/exmaple/build/negative/case_06_invalid_channel/obj/stm32f10x_rcc.o
 .group         0x0000000000000000        0xc /Users/phamvanvu/HALAAcademy/01_Courses/AUTOSAR_Classic/MCAL/Pwm/exmaple/build/negative/case_06_invalid_channel/obj/stm32f10x_rcc.o
 .group         0x0000000000000000        0xc /Users/phamvanvu/HALAAcademy/01_Courses/AUTOSAR_Classic/MCAL/Pwm/exmaple/build/negative/case_06_invalid_channel/obj/stm32f10x_rcc.o
 .group         0x0000000000000000        0xc /Users/phamvanvu/HALAAcademy/01_Courses/AUTOSAR_Classic/MCAL/Pwm/exmaple/build/negative/case_06_invalid_channel/obj/stm32f10x_rcc.o
 .group         0x0000000000000000        0xc /Users/phamvanvu/HALAAcademy/01_Courses/AUTOSAR_Classic/MCAL/Pwm/exmaple/build/negative/case_06_invalid_channel/obj/stm32f10x_rcc.o
 .group         0x0000000000000000        0xc /Users/phamvanvu/HALAAcademy/01_Courses/AUTOSAR_Classic/MCAL/Pwm/exmaple/build/negative/case_06_invalid_channel/obj/stm32f10x_rcc.o
 .group         0x0000000000000000        0xc /Users/phamvanvu/HALAAcademy/01_Courses/AUTOSAR_Classic/MCAL/Pwm/exmaple/build/negative/case_06_invalid_channel/obj/stm32f10x_rcc.o
 .debug_macro   0x0000000000000000      0xa66 /Users/phamvanvu/HALAAcademy/01_Courses/AUTOSAR_Classic/MCAL/Pwm/exmaple/build/negative/case_06_invalid_channel/obj/stm32f10x_rcc.o
 .debug_macro   0x0000000000000000       0x5d /Users/phamvanvu/HALAAcademy/01_Courses/AUTOSAR_Classic/MCAL/Pwm/exmaple/build/negative/case_06_invalid_channel/obj/stm32f10x_rcc.o
 .debug_macro   0x0000000000000000       0x22 /Users/phamvanvu/HALAAcademy/01_Courses/AUTOSAR_Classic/MCAL/Pwm/exmaple/build/negative/case_06_invalid_channel/obj/stm32f10x_rcc.o
 .debug_macro   0x0000000000000000       0x8e /Users/phamvanvu/HALAAcademy/01_Courses/AUTOSAR_Classic/MCAL/Pwm/exmaple/build/negative/case_06_invalid_channel/obj/stm32f10x_rcc.o
 .debug_macro   0x0000000000000000       0x51 /Users/phamvanvu/HALAAcademy/01_Courses/AUTOSAR_Classic/MCAL/Pwm/exmaple/build/negative/case_06_invalid_channel/obj/stm32f10x_rcc.o
 .debug_macro   0x0000000000000000      0x103 /Users/phamvanvu/HALAAcademy/01_Courses/AUTOSAR_Classic/MCAL/Pwm/exmaple/build/negative/case_06_invalid_channel/obj/stm32f10x_rcc.o
 .debug_macro   0x0000000000000000       0x6a /Users/phamvanvu/HALAAcademy/01_Courses/AUTOSAR_Classic/MCAL/Pwm/exmaple/build/negative/case_06_invalid_channel/obj/stm32f10x_rcc.o
 .debug_macro   0x0000000000000000      0x1df /Users/phamvanvu/HALAAcademy/01_Courses/AUTOSAR_Classic/MCAL/Pwm/exmaple/build/negative/case_06_invalid_channel/obj/stm32f10x_rcc.o
 .debug_macro   0x0000000000000000       0x1c /Users/phamvanvu/HALAAcademy/01_Courses/AUTOSAR_Classic/MCAL/Pwm/exmaple/build/negative/case_06_invalid_channel/obj/stm32f10x_rcc.o
 .debug_macro   0x0000000000000000       0x22 /Users/phamvanvu/HALAAcademy/01_Courses/AUTOSAR_Classic/MCAL/Pwm/exmaple/build/negative/case_06_invalid_channel/obj/stm32f10x_rcc.o
 .debug_macro   0x0000000000000000       0xbd /Users/phamvanvu/HALAAcademy/01_Courses/AUTOSAR_Classic/MCAL/Pwm/exmaple/build/negative/case_06_invalid_channel/obj/stm32f10x_rcc.o
 .debug_macro   0x0000000000000000      0xd00 /Users/phamvanvu/HALAAcademy/01_Courses/AUTOSAR_Classic/MCAL/Pwm/exmaple/build/negative/case_06_invalid_channel/obj/stm32f10x_rcc.o
 .debug_macro   0x0000000000000000     0x7eb3 /Users/phamvanvu/HALAAcademy/01_Courses/AUTOSAR_Classic/MCAL/Pwm/exmaple/build/negative/case_06_invalid_channel/obj/stm32f10x_rcc.o
 .debug_macro   0x0000000000000000       0x10 /Users/phamvanvu/HALAAcademy/01_Courses/AUTOSAR_Classic/MCAL/Pwm/exmaple/build/negative/case_06_invalid_channel/obj/stm32f10x_rcc.o
 .debug_macro   0x0000000000000000       0x35 /Users/phamvanvu/HALAAcademy/01_Courses/AUTOSAR_Classic/MCAL/Pwm/exmaple/build/negative/case_06_invalid_channel/obj/stm32f10x_rcc.o
 .comment       0x0000000000000000       0x4a /Users/phamvanvu/HALAAcademy/01_Courses/AUTOSAR_Classic/MCAL/Pwm/exmaple/build/negative/case_06_invalid_channel/obj/stm32f10x_rcc.o
 .group         0x0000000000000000        0xc /Users/phamvanvu/HALAAcademy/01_Courses/AUTOSAR_Classic/MCAL/Pwm/exmaple/build/negative/case_06_invalid_channel/obj/stm32f10x_gpio.o
 .group         0x0000000000000000        0xc /Users/phamvanvu/HALAAcademy/01_Courses/AUTOSAR_Classic/MCAL/Pwm/exmaple/build/negative/case_06_invalid_channel/obj/stm32f10x_gpio.o
 .group         0x0000000000000000        0xc /Users/phamvanvu/HALAAcademy/01_Courses/AUTOSAR_Classic/MCAL/Pwm/exmaple/build/negative/case_06_invalid_channel/obj/stm32f10x_gpio.o
 .group         0x0000000000000000        0xc /Users/phamvanvu/HALAAcademy/01_Courses/AUTOSAR_Classic/MCAL/Pwm/exmaple/build/negative/case_06_invalid_channel/obj/stm32f10x_gpio.o
 .group         0x0000000000000000        0xc /Users/phamvanvu/HALAAcademy/01_Courses/AUTOSAR_Classic/MCAL/Pwm/exmaple/build/negative/case_06_invalid_channel/obj/stm32f10x_gpio.o
 .group         0x0000000000000000        0xc /Users/phamvanvu/HALAAcademy/01_Courses/AUTOSAR_Classic/MCAL/Pwm/exmaple/build/negative/case_06_invalid_channel/obj/stm32f10x_gpio.o
 .group         0x0000000000000000        0xc /Users/phamvanvu/HALAAcademy/01_Courses/AUTOSAR_Classic/MCAL/Pwm/exmaple/build/negative/case_06_invalid_channel/obj/stm32f10x_gpio.o
 .group         0x0000000000000000        0xc /Users/phamvanvu/HALAAcademy/01_Courses/AUTOSAR_Classic/MCAL/Pwm/exmaple/build/negative/case_06_invalid_channel/obj/stm32f10x_gpio.o
 .group         0x0000000000000000        0xc /Users/phamvanvu/HALAAcademy/01_Courses/AUTOSAR_Classic/MCAL/Pwm/exmaple/build/negative/case_06_invalid_channel/obj/stm32f10x_gpio.o
 .group         0x0000000000000000        0xc /Users/phamvanvu/HALAAcademy/01_Courses/AUTOSAR_Classic/MCAL/Pwm/exmaple/build/negative/case_06_invalid_channel/obj/stm32f10x_gpio.o
 .group         0x0000000000000000        0xc /Users/phamvanvu/HALAAcademy/01_Courses/AUTOSAR_Classic/MCAL/Pwm/exmaple/build/negative/case_06_invalid_channel/obj/stm32f10x_gpio.o
 .group         0x0000000000000000        0xc /Users/phamvanvu/HALAAcademy/01_Courses/AUTOSAR_Classic/MCAL/Pwm/exmaple/build/negative/case_06_invalid_channel/obj/stm32f10x_gpio.o
 .group         0x0000000000000000        0xc /Users/phamvanvu/HALAAcademy/01_Courses/AUTOSAR_Classic/MCAL/Pwm/exmaple/build/negative/case_06_invalid_channel/obj/stm32f10x_gpio.o
 .group         0x0000000000000000        0xc /Users/phamvanvu/HALAAcademy/01_Courses/AUTOSAR_Classic/MCAL/Pwm/exmaple/build/negative/case_06_invalid_channel/obj/stm32f10x_gpio.o
 .group         0x0000000000000000        0xc /Users/phamvanvu/HALAAcademy/01_Courses/AUTOSAR_Classic/MCAL/Pwm/exmaple/build/negative/case_06_invalid_channel/obj/stm32f10x_gpio.o
 .group         0x0000000000000000        0xc /Users/phamvanvu/HALAAcademy/01_Courses/AUTOSAR_Classic/MCAL/Pwm/exmaple/build/negative/case_06_invalid_channel/obj/stm32f10x_gpio.o
 .group         0x0000000000000000        0xc /Users/phamvanvu/HALAAcademy/01_Courses/AUTOSAR_Classic/MCAL/Pwm/exmaple/build/negative/case_06_invalid_channel/obj/stm32f10x_gpio.o
 .debug_macro   0x0000000000000000      0xa66 /Users/phamvanvu/HALAAcademy/01_Courses/AUTOSAR_Classic/MCAL/Pwm/exmaple/build/negative/case_06_invalid_channel/obj/stm32f10x_gpio.o
 .debug_macro   0x0000000000000000       0x5d /Users/phamvanvu/HALAAcademy/01_Courses/AUTOSAR_Classic/MCAL/Pwm/exmaple/build/negative/case_06_invalid_channel/obj/stm32f10x_gpio.o
 .debug_macro   0x0000000000000000       0x22 /Users/phamvanvu/HALAAcademy/01_Courses/AUTOSAR_Classic/MCAL/Pwm/exmaple/build/negative/case_06_invalid_channel/obj/stm32f10x_gpio.o
 .debug_macro   0x0000000000000000       0x8e /Users/phamvanvu/HALAAcademy/01_Courses/AUTOSAR_Classic/MCAL/Pwm/exmaple/build/negative/case_06_invalid_channel/obj/stm32f10x_gpio.o
 .debug_macro   0x0000000000000000       0x51 /Users/phamvanvu/HALAAcademy/01_Courses/AUTOSAR_Classic/MCAL/Pwm/exmaple/build/negative/case_06_invalid_channel/obj/stm32f10x_gpio.o
 .debug_macro   0x0000000000000000      0x103 /Users/phamvanvu/HALAAcademy/01_Courses/AUTOSAR_Classic/MCAL/Pwm/exmaple/build/negative/case_06_invalid_channel/obj/stm32f10x_gpio.o
 .debug_macro   0x0000000000000000       0x6a /Users/phamvanvu/HALAAcademy/01_Courses/AUTOSAR_Classic/MCAL/Pwm/exmaple/build/negative/case_06_invalid_channel/obj/stm32f10x_gpio.o
 .debug_macro   0x0000000000000000      0x1df /Users/phamvanvu/HALAAcademy/01_Courses/AUTOSAR_Classic/MCAL/Pwm/exmaple/build/negative/case_06_invalid_channel/obj/stm32f10x_gpio.o
 .debug_macro   0x0000000000000000       0x1c /Users/phamvanvu/HALAAcademy/01_Courses/AUTOSAR_Classic/MCAL/Pwm/exmaple/build/negative/case_06_invalid_channel/obj/stm32f10x_gpio.o
 .debug_macro   0x0000000000000000       0x22 /Users/phamvanvu/HALAAcademy/01_Courses/AUTOSAR_Classic/MCAL/Pwm/exmaple/build/negative/case_06_invalid_channel/obj/stm32f10x_gpio.o
 .debug_macro   0x0000000000000000       0xbd /Users/phamvanvu/HALAAcademy/01_Courses/AUTOSAR_Classic/MCAL/Pwm/exmaple/build/negative/case_06_invalid_channel/obj/stm32f10x_gpio.o
 .debug_macro   0x0000000000000000      0xd00 /Users/phamvanvu/HALAAcademy/01_Courses/AUTOSAR_Classic/MCAL/Pwm/exmaple/build/negative/case_06_invalid_channel/obj/stm32f10x_gpio.o
 .debug_macro   0x0000000000000000     0x7eb3 /Users/phamvanvu/HALAAcademy/01_Courses/AUTOSAR_Classic/MCAL/Pwm/exmaple/build/negative/case_06_invalid_channel/obj/stm32f10x_gpio.o
 .debug_macro   0x0000000000000000       0x10 /Users/phamvanvu/HALAAcademy/01_Courses/AUTOSAR_Classic/MCAL/Pwm/exmaple/build/negative/case_06_invalid_channel/obj/stm32f10x_gpio.o
 .debug_macro   0x0000000000000000       0x35 /Users/phamvanvu/HALAAcademy/01_Courses/AUTOSAR_Classic/MCAL/Pwm/exmaple/build/negative/case_06_invalid_channel/obj/stm32f10x_gpio.o
 .debug_macro   0x0000000000000000      0x2a6 /Users/phamvanvu/HALAAcademy/01_Courses/AUTOSAR_Classic/MCAL/Pwm/exmaple/build/negative/case_06_invalid_channel/obj/stm32f10x_gpio.o
 .debug_macro   0x0000000000000000      0x3e2 /Users/phamvanvu/HALAAcademy/01_Courses/AUTOSAR_Classic/MCAL/Pwm/exmaple/build/negative/case_06_invalid_channel/obj/stm32f10x_gpio.o
 .comment       0x0000000000000000       0x4a /Users/phamvanvu/HALAAcademy/01_Courses/AUTOSAR_Classic/MCAL/Pwm/exmaple/build/negative/case_06_invalid_channel/obj/stm32f10x_gpio.o
 .group         0x0000000000000000        0xc /Users/phamvanvu/HALAAcademy/01_Courses/AUTOSAR_Classic/MCAL/Pwm/exmaple/build/negative/case_06_invalid_channel/obj/stm32f10x_tim.o
 .group         0x0000000000000000        0xc /Users/phamvanvu/HALAAcademy/01_Courses/AUTOSAR_Classic/MCAL/Pwm/exmaple/build/negative/case_06_invalid_channel/obj/stm32f10x_tim.o
 .group         0x0000000000000000        0xc /Users/phamvanvu/HALAAcademy/01_Courses/AUTOSAR_Classic/MCAL/Pwm/exmaple/build/negative/case_06_invalid_channel/obj/stm32f10x_tim.o
 .group         0x0000000000000000        0xc /Users/phamvanvu/HALAAcademy/01_Courses/AUTOSAR_Classic/MCAL/Pwm/exmaple/build/negative/case_06_invalid_channel/obj/stm32f10x_tim.o
 .group         0x0000000000000000        0xc /Users/phamvanvu/HALAAcademy/01_Courses/AUTOSAR_Classic/MCAL/Pwm/exmaple/build/negative/case_06_invalid_channel/obj/stm32f10x_tim.o
 .group         0x0000000000000000        0xc /Users/phamvanvu/HALAAcademy/01_Courses/AUTOSAR_Classic/MCAL/Pwm/exmaple/build/negative/case_06_invalid_channel/obj/stm32f10x_tim.o
 .group         0x0000000000000000        0xc /Users/phamvanvu/HALAAcademy/01_Courses/AUTOSAR_Classic/MCAL/Pwm/exmaple/build/negative/case_06_invalid_channel/obj/stm32f10x_tim.o
 .group         0x0000000000000000        0xc /Users/phamvanvu/HALAAcademy/01_Courses/AUTOSAR_Classic/MCAL/Pwm/exmaple/build/negative/case_06_invalid_channel/obj/stm32f10x_tim.o
 .group         0x0000000000000000        0xc /Users/phamvanvu/HALAAcademy/01_Courses/AUTOSAR_Classic/MCAL/Pwm/exmaple/build/negative/case_06_invalid_channel/obj/stm32f10x_tim.o
 .group         0x0000000000000000        0xc /Users/phamvanvu/HALAAcademy/01_Courses/AUTOSAR_Classic/MCAL/Pwm/exmaple/build/negative/case_06_invalid_channel/obj/stm32f10x_tim.o
 .group         0x0000000000000000        0xc /Users/phamvanvu/HALAAcademy/01_Courses/AUTOSAR_Classic/MCAL/Pwm/exmaple/build/negative/case_06_invalid_channel/obj/stm32f10x_tim.o
 .group         0x0000000000000000        0xc /Users/phamvanvu/HALAAcademy/01_Courses/AUTOSAR_Classic/MCAL/Pwm/exmaple/build/negative/case_06_invalid_channel/obj/stm32f10x_tim.o
 .group         0x0000000000000000        0xc /Users/phamvanvu/HALAAcademy/01_Courses/AUTOSAR_Classic/MCAL/Pwm/exmaple/build/negative/case_06_invalid_channel/obj/stm32f10x_tim.o
 .group         0x0000000000000000        0xc /Users/phamvanvu/HALAAcademy/01_Courses/AUTOSAR_Classic/MCAL/Pwm/exmaple/build/negative/case_06_invalid_channel/obj/stm32f10x_tim.o
 .group         0x0000000000000000        0xc /Users/phamvanvu/HALAAcademy/01_Courses/AUTOSAR_Classic/MCAL/Pwm/exmaple/build/negative/case_06_invalid_channel/obj/stm32f10x_tim.o
 .group         0x0000000000000000        0xc /Users/phamvanvu/HALAAcademy/01_Courses/AUTOSAR_Classic/MCAL/Pwm/exmaple/build/negative/case_06_invalid_channel/obj/stm32f10x_tim.o
 .group         0x0000000000000000        0xc /Users/phamvanvu/HALAAcademy/01_Courses/AUTOSAR_Classic/MCAL/Pwm/exmaple/build/negative/case_06_invalid_channel/obj/stm32f10x_tim.o
 .debug_macro   0x0000000000000000      0xa66 /Users/phamvanvu/HALAAcademy/01_Courses/AUTOSAR_Classic/MCAL/Pwm/exmaple/build/negative/case_06_invalid_channel/obj/stm32f10x_tim.o
 .debug_macro   0x0000000000000000       0x5d /Users/phamvanvu/HALAAcademy/01_Courses/AUTOSAR_Classic/MCAL/Pwm/exmaple/build/negative/case_06_invalid_channel/obj/stm32f10x_tim.o
 .debug_macro   0x0000000000000000       0x22 /Users/phamvanvu/HALAAcademy/01_Courses/AUTOSAR_Classic/MCAL/Pwm/exmaple/build/negative/case_06_invalid_channel/obj/stm32f10x_tim.o
 .debug_macro   0x0000000000000000       0x8e /Users/phamvanvu/HALAAcademy/01_Courses/AUTOSAR_Classic/MCAL/Pwm/exmaple/build/negative/case_06_invalid_channel/obj/stm32f10x_tim.o
 .debug_macro   0x0000000000000000       0x51 /Users/phamvanvu/HALAAcademy/01_Courses/AUTOSAR_Classic/MCAL/Pwm/exmaple/build/negative/case_06_invalid_channel/obj/stm32f10x_tim.o
 .debug_macro   0x0000000000000000      0x103 /Users/phamvanvu/HALAAcademy/01_Courses/AUTOSAR_Classic/MCAL/Pwm/exmaple/build/negative/case_06_invalid_channel/obj/stm32f10x_tim.o
 .debug_macro   0x0000000000000000       0x6a /Users/phamvanvu/HALAAcademy/01_Courses/AUTOSAR_Classic/MCAL/Pwm/exmaple/build/negative/case_06_invalid_channel/obj/stm32f10x_tim.o
 .debug_macro   0x0000000000000000      0x1df /Users/phamvanvu/HALAAcademy/01_Courses/AUTOSAR_Classic/MCAL/Pwm/exmaple/build/negative/case_06_invalid_channel/obj/stm32f10x_tim.o
 .debug_macro   0x0000000000000000       0x1c /Users/phamvanvu/HALAAcademy/01_Courses/AUTOSAR_Classic/MCAL/Pwm/exmaple/build/negative/case_06_invalid_channel/obj/stm32f10x_tim.o
 .debug_macro   0x0000000000000000       0x22 /Users/phamvanvu/HALAAcademy/01_Courses/AUTOSAR_Classic/MCAL/Pwm/exmaple/build/negative/case_06_invalid_channel/obj/stm32f10x_tim.o
 .debug_macro   0x0000000000000000       0xbd /Users/phamvanvu/HALAAcademy/01_Courses/AUTOSAR_Classic/MCAL/Pwm/exmaple/build/negative/case_06_invalid_channel/obj/stm32f10x_tim.o
 .debug_macro   0x0000000000000000      0xd00 /Users/phamvanvu/HALAAcademy/01_Courses/AUTOSAR_Classic/MCAL/Pwm/exmaple/build/negative/case_06_invalid_channel/obj/stm32f10x_tim.o
 .debug_macro   0x0000000000000000     0x7eb3 /Users/phamvanvu/HALAAcademy/01_Courses/AUTOSAR_Classic/MCAL/Pwm/exmaple/build/negative/case_06_invalid_channel/obj/stm32f10x_tim.o
 .debug_macro   0x0000000000000000       0x10 /Users/phamvanvu/HALAAcademy/01_Courses/AUTOSAR_Classic/MCAL/Pwm/exmaple/build/negative/case_06_invalid_channel/obj/stm32f10x_tim.o
 .debug_macro   0x0000000000000000       0x35 /Users/phamvanvu/HALAAcademy/01_Courses/AUTOSAR_Classic/MCAL/Pwm/exmaple/build/negative/case_06_invalid_channel/obj/stm32f10x_tim.o
 .debug_macro   0x0000000000000000      0x70b /Users/phamvanvu/HALAAcademy/01_Courses/AUTOSAR_Classic/MCAL/Pwm/exmaple/build/negative/case_06_invalid_channel/obj/stm32f10x_tim.o
 .debug_macro   0x0000000000000000      0x3e2 /Users/phamvanvu/HALAAcademy/01_Courses/AUTOSAR_Classic/MCAL/Pwm/exmaple/build/negative/case_06_invalid_channel/obj/stm32f10x_tim.o
 .comment       0x0000000000000000       0x4a /Users/phamvanvu/HALAAcademy/01_Courses/AUTOSAR_Classic/MCAL/Pwm/exmaple/build/negative/case_06_invalid_channel/obj/stm32f10x_tim.o

Memory Configuration

Name             Origin             Length             Attributes
FLASH            0x0000000008000000 0x0000000000010000 xr
RAM              0x0000000020000000 0x0000000000005000 xrw
*default*        0x0000000000000000 0xffffffffffffffff

Linker script and memory map

LOAD /Users/phamvanvu/HALAAcademy/01_Courses/AUTOSAR_Classic/MCAL/Pwm/exmaple/build/negative/case_06_invalid_channel/obj/main.o
LOAD /Users/phamvanvu/HALAAcademy/01_Courses/AUTOSAR_Classic/MCAL/Pwm/exmaple/build/negative/case_06_invalid_channel/obj/pwm_example_port.o
LOAD /Users/phamvanvu/HALAAcademy/01_Courses/AUTOSAR_Classic/MCAL/Pwm/exmaple/build/negative/case_06_invalid_channel/obj/Pwm.o
LOAD /Users/phamvanvu/HALAAcademy/01_Courses/AUTOSAR_Classic/MCAL/Pwm/exmaple/build/negative/case_06_invalid_channel/obj/Pwm_Lcfg.o
LOAD /Users/phamvanvu/HALAAcademy/01_Courses/AUTOSAR_Classic/MCAL/Pwm/exmaple/build/negative/case_06_invalid_channel/obj/system_stm32f10x.o
LOAD /Users/phamvanvu/HALAAcademy/01_Courses/AUTOSAR_Classic/MCAL/Pwm/exmaple/build/negative/case_06_invalid_channel/obj/stm32f10x_rcc.o
LOAD /Users/phamvanvu/HALAAcademy/01_Courses/AUTOSAR_Classic/MCAL/Pwm/exmaple/build/negative/case_06_invalid_channel/obj/stm32f10x_gpio.o
LOAD /Users/phamvanvu/HALAAcademy/01_Courses/AUTOSAR_Classic/MCAL/Pwm/exmaple/build/negative/case_06_invalid_channel/obj/stm32f10x_tim.o
LOAD /Users/phamvanvu/HALAAcademy/01_Courses/AUTOSAR_Classic/MCAL/Pwm/exmaple/build/negative/case_06_invalid_channel/obj/startup_stm32f10x_md.o
                0x0000000020005000                _estack = (ORIGIN (RAM) + LENGTH (RAM))

.isr_vector     0x0000000008000000      0x10c
 *(.isr_vector)
 .isr_vector    0x0000000008000000      0x10c /Users/phamvanvu/HALAAcademy/01_Courses/AUTOSAR_Classic/MCAL/Pwm/exmaple/build/negative/case_06_invalid_channel/obj/startup_stm32f10x_md.o
                0x0000000008000000                g_pfnVectors

.text           0x000000000800010c     0x34f8
                0x000000000800010c                _stext = .
 *(.text*)
 .text          0x000000000800010c       0x60 /Users/phamvanvu/HALAAcademy/01_Courses/AUTOSAR_Classic/MCAL/Pwm/exmaple/build/negative/case_06_invalid_channel/obj/main.o
                0x000000000800010c                main
 .text          0x000000000800016c       0x30 /Users/phamvanvu/HALAAcademy/01_Courses/AUTOSAR_Classic/MCAL/Pwm/exmaple/build/negative/case_06_invalid_channel/obj/pwm_example_port.o
                0x000000000800016c                Pwm_Example_PortInit
 .text          0x000000000800019c      0x638 /Users/phamvanvu/HALAAcademy/01_Courses/AUTOSAR_Classic/MCAL/Pwm/exmaple/build/negative/case_06_invalid_channel/obj/Pwm.o
                0x000000000800030c                Pwm_Init
                0x00000000080003cc                Pwm_DeInit
                0x0000000008000468                Pwm_SetDutyCycle
                0x00000000080004ae                Pwm_SetPeriodAndDuty
                0x0000000008000504                Pwm_SetOutputToIdle
                0x0000000008000530                Pwm_GetOutputState
                0x00000000080005ca                Pwm_DisableNotification
                0x00000000080005f6                Pwm_EnableNotification
                0x0000000008000628                Pwm_GetVersionInfo
                0x0000000008000664                Pwm_SetPowerState
                0x00000000080006cc                Pwm_GetCurrentPowerState
                0x000000000800071c                Pwm_GetTargetPowerState
                0x000000000800076c                Pwm_PreparePowerState
                0x00000000080007c0                Pwm_Main_PowerTransitionManager
 .text          0x00000000080007d4        0xc /Users/phamvanvu/HALAAcademy/01_Courses/AUTOSAR_Classic/MCAL/Pwm/exmaple/build/negative/case_06_invalid_channel/obj/Pwm_Lcfg.o
                0x00000000080007d4                Pwm_Channel0_Notification
 .text          0x00000000080007e0      0x258 /Users/phamvanvu/HALAAcademy/01_Courses/AUTOSAR_Classic/MCAL/Pwm/exmaple/build/negative/case_06_invalid_channel/obj/system_stm32f10x.o
                0x00000000080007e0                SystemInit
                0x0000000008000848                SystemCoreClockUpdate
 .text          0x0000000008000a38      0x7dc /Users/phamvanvu/HALAAcademy/01_Courses/AUTOSAR_Classic/MCAL/Pwm/exmaple/build/negative/case_06_invalid_channel/obj/stm32f10x_rcc.o
                0x0000000008000a38                RCC_DeInit
                0x0000000008000a94                RCC_HSEConfig
                0x0000000008000af0                RCC_WaitForHSEStartUp
                0x0000000008000b40                RCC_AdjustHSICalibrationValue
                0x0000000008000b7c                RCC_HSICmd
                0x0000000008000b9c                RCC_PLLConfig
                0x0000000008000bd8                RCC_PLLCmd
                0x0000000008000bf8                RCC_SYSCLKConfig
                0x0000000008000c30                RCC_GetSYSCLKSource
                0x0000000008000c4c                RCC_HCLKConfig
                0x0000000008000c84                RCC_PCLK1Config
                0x0000000008000cbc                RCC_PCLK2Config
                0x0000000008000cf4                RCC_ITConfig
                0x0000000008000d40                RCC_USBCLKConfig
                0x0000000008000d5c                RCC_ADCCLKConfig
                0x0000000008000d94                RCC_LSEConfig
                0x0000000008000dd4                RCC_LSICmd
                0x0000000008000df4                RCC_RTCCLKConfig
                0x0000000008000e18                RCC_RTCCLKCmd
                0x0000000008000e38                RCC_GetClocksFreq
                0x0000000008000fa4                RCC_AHBPeriphClockCmd
                0x0000000008000fe0                RCC_APB2PeriphClockCmd
                0x000000000800101c                RCC_APB1PeriphClockCmd
                0x0000000008001058                RCC_APB2PeriphResetCmd
                0x0000000008001094                RCC_APB1PeriphResetCmd
                0x00000000080010d0                RCC_BackupResetCmd
                0x00000000080010f0                RCC_ClockSecuritySystemCmd
                0x0000000008001110                RCC_MCOConfig
                0x0000000008001130                RCC_GetFlagStatus
                0x00000000080011a4                RCC_ClearFlag
                0x00000000080011c0                RCC_GetITStatus
                0x00000000080011f4                RCC_ClearITPendingBit
 .text          0x0000000008001214      0x5d8 /Users/phamvanvu/HALAAcademy/01_Courses/AUTOSAR_Classic/MCAL/Pwm/exmaple/build/negative/case_06_invalid_channel/obj/stm32f10x_gpio.o
                0x0000000008001214                GPIO_DeInit
                0x00000000080012f8                GPIO_AFIODeInit
                0x0000000008001310                GPIO_Init
                0x0000000008001488                GPIO_StructInit
                0x00000000080014ae                GPIO_ReadInputDataBit
                0x00000000080014e0                GPIO_ReadInputData
                0x00000000080014f8                GPIO_ReadOutputDataBit
                0x000000000800152a                GPIO_ReadOutputData
                0x0000000008001542                GPIO_SetBits
                0x000000000800155e                GPIO_ResetBits
                0x000000000800157a                GPIO_WriteBit
                0x00000000080015a8                GPIO_Write
                0x00000000080015c4                GPIO_PinLockConfig
                0x0000000008001606                GPIO_EventOutputConfig
                0x0000000008001650                GPIO_EventOutputCmd
                0x0000000008001670                GPIO_PinRemapConfig
                0x0000000008001750                GPIO_EXTILineConfig
                0x00000000080017d0                GPIO_ETH_MediaInterfaceConfig
 .text          0x00000000080017ec     0x1d94 /Users/phamvanvu/HALAAcademy/01_Courses/AUTOSAR_Classic/MCAL/Pwm/exmaple/build/negative/case_06_invalid_channel/obj/stm32f10x_tim.o
                0x00000000080017ec                TIM_DeInit
                0x0000000008001a18                TIM_TimeBaseInit
                0x0000000008001b10                TIM_OC1Init
                0x0000000008001c28                TIM_OC2Init
                0x0000000008001d38                TIM_OC3Init
                0x0000000008001e44                TIM_OC4Init
                0x0000000008001f14                TIM_ICInit
                0x0000000008001fbc                TIM_PWMIConfig
                0x0000000008002074                TIM_BDTRConfig
                0x00000000080020c2                TIM_TimeBaseStructInit
                0x00000000080020f4                TIM_OCStructInit
                0x0000000008002136                TIM_ICStructInit
                0x0000000008002166                TIM_BDTRStructInit
                0x00000000080021a2                TIM_Cmd
                0x00000000080021e0                TIM_CtrlPWMOutputs
                0x000000000800222a                TIM_ITConfig
                0x0000000008002270                TIM_GenerateEvent
                0x000000000800228c                TIM_DMAConfig
                0x00000000080022b4                TIM_DMACmd
                0x00000000080022fa                TIM_InternalClockConfig
                0x000000000800231c                TIM_ITRxExternalClockConfig
                0x000000000800234a                TIM_TIxExternalClockConfig
                0x00000000080023a6                TIM_ETRClockMode1Config
                0x0000000008002404                TIM_ETRClockMode2Config
                0x0000000008002442                TIM_ETRConfig
                0x0000000008002494                TIM_PrescalerConfig
                0x00000000080024ba                TIM_CounterModeConfig
                0x00000000080024f0                TIM_SelectInputTrigger
                0x0000000008002526                TIM_EncoderInterfaceConfig
                0x00000000080025bc                TIM_ForcedOC1Config
                0x00000000080025f2                TIM_ForcedOC2Config
                0x000000000800262c                TIM_ForcedOC3Config
                0x0000000008002662                TIM_ForcedOC4Config
                0x000000000800269c                TIM_ARRPreloadConfig
                0x00000000080026da                TIM_SelectCOM
                0x0000000008002718                TIM_SelectCCDMA
                0x0000000008002756                TIM_CCPreloadControl
                0x0000000008002794                TIM_OC1PreloadConfig
                0x00000000080027ca                TIM_OC2PreloadConfig
                0x0000000008002804                TIM_OC3PreloadConfig
                0x000000000800283a                TIM_OC4PreloadConfig
                0x0000000008002874                TIM_OC1FastConfig
                0x00000000080028aa                TIM_OC2FastConfig
                0x00000000080028e4                TIM_OC3FastConfig
                0x000000000800291a                TIM_OC4FastConfig
                0x0000000008002954                TIM_ClearOC1Ref
                0x000000000800298a                TIM_ClearOC2Ref
                0x00000000080029c4                TIM_ClearOC3Ref
                0x00000000080029fa                TIM_ClearOC4Ref
                0x0000000008002a34                TIM_OC1PolarityConfig
                0x0000000008002a6a                TIM_OC1NPolarityConfig
                0x0000000008002aa0                TIM_OC2PolarityConfig
                0x0000000008002ada                TIM_OC2NPolarityConfig
                0x0000000008002b14                TIM_OC3PolarityConfig
                0x0000000008002b4e                TIM_OC3NPolarityConfig
                0x0000000008002b88                TIM_OC4PolarityConfig
                0x0000000008002bc2                TIM_CCxCmd
                0x0000000008002c16                TIM_CCxNCmd
                0x0000000008002c6a                TIM_SelectOCxM
                0x0000000008002d1a                TIM_UpdateDisableConfig
                0x0000000008002d58                TIM_UpdateRequestConfig
                0x0000000008002d96                TIM_SelectHallSensor
                0x0000000008002dd4                TIM_SelectOnePulseMode
                0x0000000008002e0a                TIM_SelectOutputTrigger
                0x0000000008002e40                TIM_SelectSlaveMode
                0x0000000008002e76                TIM_SelectMasterSlaveMode
                0x0000000008002eac                TIM_SetCounter
                0x0000000008002ec8                TIM_SetAutoreload
                0x0000000008002ee4                TIM_SetCompare1
                0x0000000008002f00                TIM_SetCompare2
                0x0000000008002f1c                TIM_SetCompare3
                0x0000000008002f38                TIM_SetCompare4
                0x0000000008002f56                TIM_SetIC1Prescaler
                0x0000000008002f8c                TIM_SetIC2Prescaler
                0x0000000008002fc6                TIM_SetIC3Prescaler
                0x0000000008002ffc                TIM_SetIC4Prescaler
                0x0000000008003036                TIM_SetClockDivision
                0x000000000800306c                TIM_GetCapture1
                0x0000000008003084                TIM_GetCapture2
                0x000000000800309c                TIM_GetCapture3
                0x00000000080030b4                TIM_GetCapture4
                0x00000000080030ce                TIM_GetCounter
                0x00000000080030e6                TIM_GetPrescaler
                0x00000000080030fe                TIM_GetFlagStatus
                0x0000000008003134                TIM_ClearFlag
                0x0000000008003154                TIM_GetITStatus
                0x00000000080031a6                TIM_ClearITPendingBit
 .text          0x0000000008003580       0x14 /Users/phamvanvu/HALAAcademy/01_Courses/AUTOSAR_Classic/MCAL/Pwm/exmaple/build/negative/case_06_invalid_channel/obj/startup_stm32f10x_md.o
 .text.Reset_Handler
                0x0000000008003594       0x44 /Users/phamvanvu/HALAAcademy/01_Courses/AUTOSAR_Classic/MCAL/Pwm/exmaple/build/negative/case_06_invalid_channel/obj/startup_stm32f10x_md.o
                0x0000000008003594                Reset_Handler
 .text.Default_Handler
                0x00000000080035d8        0x2 /Users/phamvanvu/HALAAcademy/01_Courses/AUTOSAR_Classic/MCAL/Pwm/exmaple/build/negative/case_06_invalid_channel/obj/startup_stm32f10x_md.o
                0x00000000080035d8                USBWakeUp_IRQHandler
                0x00000000080035d8                DebugMon_Handler
                0x00000000080035d8                TIM1_CC_IRQHandler
                0x00000000080035d8                HardFault_Handler
                0x00000000080035d8                SysTick_Handler
                0x00000000080035d8                PVD_IRQHandler
                0x00000000080035d8                PendSV_Handler
                0x00000000080035d8                NMI_Handler
                0x00000000080035d8                EXTI3_IRQHandler
                0x00000000080035d8                EXTI0_IRQHandler
                0x00000000080035d8                I2C2_EV_IRQHandler
                0x00000000080035d8                UsageFault_Handler
                0x00000000080035d8                ADC1_2_IRQHandler
                0x00000000080035d8                SPI1_IRQHandler
                0x00000000080035d8                TAMPER_IRQHandler
                0x00000000080035d8                DMA1_Channel4_IRQHandler
                0x00000000080035d8                USART3_IRQHandler
                0x00000000080035d8                RTC_IRQHandler
                0x00000000080035d8                DMA1_Channel7_IRQHandler
                0x00000000080035d8                CAN1_RX1_IRQHandler
                0x00000000080035d8                TIM4_IRQHandler
                0x00000000080035d8                I2C1_EV_IRQHandler
                0x00000000080035d8                DMA1_Channel6_IRQHandler
                0x00000000080035d8                TIM3_IRQHandler
                0x00000000080035d8                RCC_IRQHandler
                0x00000000080035d8                TIM1_TRG_COM_IRQHandler
                0x00000000080035d8                DMA1_Channel1_IRQHandler
                0x00000000080035d8                Default_Handler
                0x00000000080035d8                EXTI15_10_IRQHandler
                0x00000000080035d8                EXTI9_5_IRQHandler
                0x00000000080035d8                SPI2_IRQHandler
                0x00000000080035d8                MemManage_Handler
                0x00000000080035d8                SVC_Handler
                0x00000000080035d8                DMA1_Channel5_IRQHandler
                0x00000000080035d8                EXTI4_IRQHandler
                0x00000000080035d8                USB_LP_CAN1_RX0_IRQHandler
                0x00000000080035d8                USB_HP_CAN1_TX_IRQHandler
                0x00000000080035d8                DMA1_Channel3_IRQHandler
                0x00000000080035d8                TIM1_UP_IRQHandler
                0x00000000080035d8                WWDG_IRQHandler
                0x00000000080035d8                TIM2_IRQHandler
                0x00000000080035d8                TIM1_BRK_IRQHandler
                0x00000000080035d8                EXTI1_IRQHandler
                0x00000000080035d8                RTCAlarm_IRQHandler
                0x00000000080035d8                USART2_IRQHandler
                0x00000000080035d8                I2C2_ER_IRQHandler
                0x00000000080035d8                DMA1_Channel2_IRQHandler
                0x00000000080035d8                CAN1_SCE_IRQHandler
                0x00000000080035d8                FLASH_IRQHandler
                0x00000000080035d8                BusFault_Handler
                0x00000000080035d8                USART1_IRQHandler
                0x00000000080035d8                I2C1_ER_IRQHandler
                0x00000000080035d8                EXTI2_IRQHandler
 *(.rodata*)
 *fill*         0x00000000080035da        0x2 
 .rodata        0x00000000080035dc       0x28 /Users/phamvanvu/HALAAcademy/01_Courses/AUTOSAR_Classic/MCAL/Pwm/exmaple/build/negative/case_06_invalid_channel/obj/Pwm_Lcfg.o
                0x00000000080035dc                PwmChannelsConfig
                0x00000000080035fc                PwmDriverConfig
 *(.glue_7)
 .glue_7        0x0000000008003604        0x0 linker stubs
 *(.glue_7t)
 .glue_7t       0x0000000008003604        0x0 linker stubs

.vfp11_veneer   0x0000000008003604        0x0
 .vfp11_veneer  0x0000000008003604        0x0 linker stubs

.v4_bx          0x0000000008003604        0x0
 .v4_bx         0x0000000008003604        0x0 linker stubs

.iplt           0x0000000008003604        0x0
 .iplt          0x0000000008003604        0x0 /Users/phamvanvu/HALAAcademy/01_Courses/AUTOSAR_Classic/MCAL/Pwm/exmaple/build/negative/case_06_invalid_channel/obj/main.o

.rel.dyn        0x0000000008003604        0x0
 .rel.iplt      0x0000000008003604        0x0 /Users/phamvanvu/HALAAcademy/01_Courses/AUTOSAR_Classic/MCAL/Pwm/exmaple/build/negative/case_06_invalid_channel/obj/main.o
                0x0000000008003604                . = ALIGN (0x4)

.ARM.extab
 *(.ARM.extab* .gnu.linkonce.armextab.*)
                0x0000000008003604                . = ALIGN (0x4)
                0x0000000008003604                __exidx_start = .

.ARM.exidx
 *(.ARM.exidx* .gnu.linkonce.armexidx.*)
                0x0000000008003604                __exidx_end = .
                0x0000000008003604                . = ALIGN (0x4)
                0x0000000008003604                _etext = .

.data           0x0000000020000000       0x2c load address 0x0000000008003604
                0x0000000020000000                . = ALIGN (0x4)
                0x0000000020000000                _sdata = .
 *(.data*)
 .data          0x0000000020000000        0x1 /Users/phamvanvu/HALAAcademy/01_Courses/AUTOSAR_Classic/MCAL/Pwm/exmaple/build/negative/case_06_invalid_channel/obj/main.o
                0x0000000020000000                g_case06_state_invalid
 .data          0x0000000020000001        0x0 /Users/phamvanvu/HALAAcademy/01_Courses/AUTOSAR_Classic/MCAL/Pwm/exmaple/build/negative/case_06_invalid_channel/obj/pwm_example_port.o
 .data          0x0000000020000001        0x0 /Users/phamvanvu/HALAAcademy/01_Courses/AUTOSAR_Classic/MCAL/Pwm/exmaple/build/negative/case_06_invalid_channel/obj/Pwm.o
 .data          0x0000000020000001        0x0 /Users/phamvanvu/HALAAcademy/01_Courses/AUTOSAR_Classic/MCAL/Pwm/exmaple/build/negative/case_06_invalid_channel/obj/Pwm_Lcfg.o
 *fill*         0x0000000020000001        0x3 
 .data          0x0000000020000004       0x14 /Users/phamvanvu/HALAAcademy/01_Courses/AUTOSAR_Classic/MCAL/Pwm/exmaple/build/negative/case_06_invalid_channel/obj/system_stm32f10x.o
                0x0000000020000004                SystemCoreClock
                0x0000000020000008                AHBPrescTable
 .data          0x0000000020000018       0x14 /Users/phamvanvu/HALAAcademy/01_Courses/AUTOSAR_Classic/MCAL/Pwm/exmaple/build/negative/case_06_invalid_channel/obj/stm32f10x_rcc.o
 .data          0x000000002000002c        0x0 /Users/phamvanvu/HALAAcademy/01_Courses/AUTOSAR_Classic/MCAL/Pwm/exmaple/build/negative/case_06_invalid_channel/obj/stm32f10x_gpio.o
 .data          0x000000002000002c        0x0 /Users/phamvanvu/HALAAcademy/01_Courses/AUTOSAR_Classic/MCAL/Pwm/exmaple/build/negative/case_06_invalid_channel/obj/stm32f10x_tim.o
 .data          0x000000002000002c        0x0 /Users/phamvanvu/HALAAcademy/01_Courses/AUTOSAR_Classic/MCAL/Pwm/exmaple/build/negative/case_06_invalid_channel/obj/startup_stm32f10x_md.o
 *(.data.*)
                0x000000002000002c                . = ALIGN (0x4)
                0x000000002000002c                _edata = .
                0x0000000008003604                _sidata = LOADADDR (.data)

.igot.plt       0x000000002000002c        0x0 load address 0x0000000008003630
 .igot.plt      0x000000002000002c        0x0 /Users/phamvanvu/HALAAcademy/01_Courses/AUTOSAR_Classic/MCAL/Pwm/exmaple/build/negative/case_06_invalid_channel/obj/main.o

.bss            0x000000002000002c       0x10 load address 0x0000000008003630
                0x000000002000002c                . = ALIGN (0x4)
                0x000000002000002c                _sbss = .
 *(.bss*)
 .bss           0x000000002000002c        0x8 /Users/phamvanvu/HALAAcademy/01_Courses/AUTOSAR_Classic/MCAL/Pwm/exmaple/build/negative/case_06_invalid_channel/obj/main.o
                0x000000002000002c                g_case06_version
 .bss           0x0000000020000034        0x0 /Users/phamvanvu/HALAAcademy/01_Courses/AUTOSAR_Classic/MCAL/Pwm/exmaple/build/negative/case_06_invalid_channel/obj/pwm_example_port.o
 .bss           0x0000000020000034        0x8 /Users/phamvanvu/HALAAcademy/01_Courses/AUTOSAR_Classic/MCAL/Pwm/exmaple/build/negative/case_06_invalid_channel/obj/Pwm.o
 .bss           0x000000002000003c        0x0 /Users/phamvanvu/HALAAcademy/01_Courses/AUTOSAR_Classic/MCAL/Pwm/exmaple/build/negative/case_06_invalid_channel/obj/Pwm_Lcfg.o
 .bss           0x000000002000003c        0x0 /Users/phamvanvu/HALAAcademy/01_Courses/AUTOSAR_Classic/MCAL/Pwm/exmaple/build/negative/case_06_invalid_channel/obj/system_stm32f10x.o
 .bss           0x000000002000003c        0x0 /Users/phamvanvu/HALAAcademy/01_Courses/AUTOSAR_Classic/MCAL/Pwm/exmaple/build/negative/case_06_invalid_channel/obj/stm32f10x_rcc.o
 .bss           0x000000002000003c        0x0 /Users/phamvanvu/HALAAcademy/01_Courses/AUTOSAR_Classic/MCAL/Pwm/exmaple/build/negative/case_06_invalid_channel/obj/stm32f10x_gpio.o
 .bss           0x000000002000003c        0x0 /Users/phamvanvu/HALAAcademy/01_Courses/AUTOSAR_Classic/MCAL/Pwm/exmaple/build/negative/case_06_invalid_channel/obj/stm32f10x_tim.o
 .bss           0x000000002000003c        0x0 /Users/phamvanvu/HALAAcademy/01_Courses/AUTOSAR_Classic/MCAL/Pwm/exmaple/build/negative/case_06_invalid_channel/obj/startup_stm32f10x_md.o
 *(COMMON)
                0x000000002000003c                . = ALIGN (0x4)
                0x000000002000003c                _ebss = .

/DISCARD/
 *(.note*)
 *(.comment*)
OUTPUT(/Users/phamvanvu/HALAAcademy/01_Courses/AUTOSAR_Classic/MCAL/Pwm/exmaple/build/negative/case_06_invalid_channel/case_06_invalid_channel.elf elf32-littlearm)
LOAD linker stubs

.ARM.attributes
                0x0000000000000000       0x2b
 .ARM.attributes
                0x0000000000000000       0x2d /Users/phamvanvu/HALAAcademy/01_Courses/AUTOSAR_Classic/MCAL/Pwm/exmaple/build/negative/case_06_invalid_channel/obj/main.o
 .ARM.attributes
                0x000000000000002d       0x2d /Users/phamvanvu/HALAAcademy/01_Courses/AUTOSAR_Classic/MCAL/Pwm/exmaple/build/negative/case_06_invalid_channel/obj/pwm_example_port.o
 .ARM.attributes
                0x000000000000005a       0x2d /Users/phamvanvu/HALAAcademy/01_Courses/AUTOSAR_Classic/MCAL/Pwm/exmaple/build/negative/case_06_invalid_channel/obj/Pwm.o
 .ARM.attributes
                0x0000000000000087       0x2d /Users/phamvanvu/HALAAcademy/01_Courses/AUTOSAR_Classic/MCAL/Pwm/exmaple/build/negative/case_06_invalid_channel/obj/Pwm_Lcfg.o
 .ARM.attributes
                0x00000000000000b4       0x2d /Users/phamvanvu/HALAAcademy/01_Courses/AUTOSAR_Classic/MCAL/Pwm/exmaple/build/negative/case_06_invalid_channel/obj/system_stm32f10x.o
 .ARM.attributes
                0x00000000000000e1       0x2d /Users/phamvanvu/HALAAcademy/01_Courses/AUTOSAR_Classic/MCAL/Pwm/exmaple/build/negative/case_06_invalid_channel/obj/stm32f10x_rcc.o
 .ARM.attributes
                0x000000000000010e       0x2d /Users/phamvanvu/HALAAcademy/01_Courses/AUTOSAR_Classic/MCAL/Pwm/exmaple/build/negative/case_06_invalid_channel/obj/stm32f10x_gpio.o
 .ARM.attributes
                0x000000000000013b       0x2d /Users/phamvanvu/HALAAcademy/01_Courses/AUTOSAR_Classic/MCAL/Pwm/exmaple/build/negative/case_06_invalid_channel/obj/stm32f10x_tim.o
 .ARM.attributes
                0x0000000000000168       0x21 /Users/phamvanvu/HALAAcademy/01_Courses/AUTOSAR_Classic/MCAL/Pwm/exmaple/build/negative/case_06_invalid_channel/obj/startup_stm32f10x_md.o

.debug_info     0x0000000000000000     0x4880
 .debug_info    0x0000000000000000      0x4ed /Users/phamvanvu/HALAAcademy/01_Courses/AUTOSAR_Classic/MCAL/Pwm/exmaple/build/negative/case_06_invalid_channel/obj/main.o
 .debug_info    0x00000000000004ed      0x212 /Users/phamvanvu/HALAAcademy/01_Courses/AUTOSAR_Classic/MCAL/Pwm/exmaple/build/negative/case_06_invalid_channel/obj/pwm_example_port.o
 .debug_info    0x00000000000006ff      0x9fa /Users/phamvanvu/HALAAcademy/01_Courses/AUTOSAR_Classic/MCAL/Pwm/exmaple/build/negative/case_06_invalid_channel/obj/Pwm.o
 .debug_info    0x00000000000010f9      0x496 /Users/phamvanvu/HALAAcademy/01_Courses/AUTOSAR_Classic/MCAL/Pwm/exmaple/build/negative/case_06_invalid_channel/obj/Pwm_Lcfg.o
 .debug_info    0x000000000000158f      0x4ba /Users/phamvanvu/HALAAcademy/01_Courses/AUTOSAR_Classic/MCAL/Pwm/exmaple/build/negative/case_06_invalid_channel/obj/system_stm32f10x.o
 .debug_info    0x0000000000001a49      0x8f7 /Users/phamvanvu/HALAAcademy/01_Courses/AUTOSAR_Classic/MCAL/Pwm/exmaple/build/negative/case_06_invalid_channel/obj/stm32f10x_rcc.o
 .debug_info    0x0000000000002340      0x732 /Users/phamvanvu/HALAAcademy/01_Courses/AUTOSAR_Classic/MCAL/Pwm/exmaple/build/negative/case_06_invalid_channel/obj/stm32f10x_gpio.o
 .debug_info    0x0000000000002a72     0x1dec /Users/phamvanvu/HALAAcademy/01_Courses/AUTOSAR_Classic/MCAL/Pwm/exmaple/build/negative/case_06_invalid_channel/obj/stm32f10x_tim.o
 .debug_info    0x000000000000485e       0x22 /Users/phamvanvu/HALAAcademy/01_Courses/AUTOSAR_Classic/MCAL/Pwm/exmaple/build/negative/case_06_invalid_channel/obj/startup_stm32f10x_md.o

.debug_abbrev   0x0000000000000000      0xca5
 .debug_abbrev  0x0000000000000000      0x118 /Users/phamvanvu/HALAAcademy/01_Courses/AUTOSAR_Classic/MCAL/Pwm/exmaple/build/negative/case_06_invalid_channel/obj/main.o
 .debug_abbrev  0x0000000000000118       0xfd /Users/phamvanvu/HALAAcademy/01_Courses/AUTOSAR_Classic/MCAL/Pwm/exmaple/build/negative/case_06_invalid_channel/obj/pwm_example_port.o
 .debug_abbrev  0x0000000000000215      0x25b /Users/phamvanvu/HALAAcademy/01_Courses/AUTOSAR_Classic/MCAL/Pwm/exmaple/build/negative/case_06_invalid_channel/obj/Pwm.o
 .debug_abbrev  0x0000000000000470      0x115 /Users/phamvanvu/HALAAcademy/01_Courses/AUTOSAR_Classic/MCAL/Pwm/exmaple/build/negative/case_06_invalid_channel/obj/Pwm_Lcfg.o
 .debug_abbrev  0x0000000000000585      0x180 /Users/phamvanvu/HALAAcademy/01_Courses/AUTOSAR_Classic/MCAL/Pwm/exmaple/build/negative/case_06_invalid_channel/obj/system_stm32f10x.o
 .debug_abbrev  0x0000000000000705      0x1d6 /Users/phamvanvu/HALAAcademy/01_Courses/AUTOSAR_Classic/MCAL/Pwm/exmaple/build/negative/case_06_invalid_channel/obj/stm32f10x_rcc.o
 .debug_abbrev  0x00000000000008db      0x1ec /Users/phamvanvu/HALAAcademy/01_Courses/AUTOSAR_Classic/MCAL/Pwm/exmaple/build/negative/case_06_invalid_channel/obj/stm32f10x_gpio.o
 .debug_abbrev  0x0000000000000ac7      0x1cc /Users/phamvanvu/HALAAcademy/01_Courses/AUTOSAR_Classic/MCAL/Pwm/exmaple/build/negative/case_06_invalid_channel/obj/stm32f10x_tim.o
 .debug_abbrev  0x0000000000000c93       0x12 /Users/phamvanvu/HALAAcademy/01_Courses/AUTOSAR_Classic/MCAL/Pwm/exmaple/build/negative/case_06_invalid_channel/obj/startup_stm32f10x_md.o

.debug_aranges  0x0000000000000000      0x128
 .debug_aranges
                0x0000000000000000       0x20 /Users/phamvanvu/HALAAcademy/01_Courses/AUTOSAR_Classic/MCAL/Pwm/exmaple/build/negative/case_06_invalid_channel/obj/main.o
 .debug_aranges
                0x0000000000000020       0x20 /Users/phamvanvu/HALAAcademy/01_Courses/AUTOSAR_Classic/MCAL/Pwm/exmaple/build/negative/case_06_invalid_channel/obj/pwm_example_port.o
 .debug_aranges
                0x0000000000000040       0x20 /Users/phamvanvu/HALAAcademy/01_Courses/AUTOSAR_Classic/MCAL/Pwm/exmaple/build/negative/case_06_invalid_channel/obj/Pwm.o
 .debug_aranges
                0x0000000000000060       0x20 /Users/phamvanvu/HALAAcademy/01_Courses/AUTOSAR_Classic/MCAL/Pwm/exmaple/build/negative/case_06_invalid_channel/obj/Pwm_Lcfg.o
 .debug_aranges
                0x0000000000000080       0x20 /Users/phamvanvu/HALAAcademy/01_Courses/AUTOSAR_Classic/MCAL/Pwm/exmaple/build/negative/case_06_invalid_channel/obj/system_stm32f10x.o
 .debug_aranges
                0x00000000000000a0       0x20 /Users/phamvanvu/HALAAcademy/01_Courses/AUTOSAR_Classic/MCAL/Pwm/exmaple/build/negative/case_06_invalid_channel/obj/stm32f10x_rcc.o
 .debug_aranges
                0x00000000000000c0       0x20 /Users/phamvanvu/HALAAcademy/01_Courses/AUTOSAR_Classic/MCAL/Pwm/exmaple/build/negative/case_06_invalid_channel/obj/stm32f10x_gpio.o
 .debug_aranges
                0x00000000000000e0       0x20 /Users/phamvanvu/HALAAcademy/01_Courses/AUTOSAR_Classic/MCAL/Pwm/exmaple/build/negative/case_06_invalid_channel/obj/stm32f10x_tim.o
 .debug_aranges
                0x0000000000000100       0x28 /Users/phamvanvu/HALAAcademy/01_Courses/AUTOSAR_Classic/MCAL/Pwm/exmaple/build/negative/case_06_invalid_channel/obj/startup_stm32f10x_md.o

.debug_macro    0x0000000000000000     0xc561
 .debug_macro   0x0000000000000000       0xfc /Users/phamvanvu/HALAAcademy/01_Courses/AUTOSAR_Classic/MCAL/Pwm/exmaple/build/negative/case_06_invalid_channel/obj/main.o
 .debug_macro   0x00000000000000fc      0xa66 /Users/phamvanvu/HALAAcademy/01_Courses/AUTOSAR_Classic/MCAL/Pwm/exmaple/build/negative/case_06_invalid_channel/obj/main.o
 .debug_macro   0x0000000000000b62       0x69 /Users/phamvanvu/HALAAcademy/01_Courses/AUTOSAR_Classic/MCAL/Pwm/exmaple/build/negative/case_06_invalid_channel/obj/main.o
 .debug_macro   0x0000000000000bcb       0x5d /Users/phamvanvu/HALAAcademy/01_Courses/AUTOSAR_Classic/MCAL/Pwm/exmaple/build/negative/case_06_invalid_channel/obj/main.o
 .debug_macro   0x0000000000000c28       0x22 /Users/phamvanvu/HALAAcademy/01_Courses/AUTOSAR_Classic/MCAL/Pwm/exmaple/build/negative/case_06_invalid_channel/obj/main.o
 .debug_macro   0x0000000000000c4a       0x8e /Users/phamvanvu/HALAAcademy/01_Courses/AUTOSAR_Classic/MCAL/Pwm/exmaple/build/negative/case_06_invalid_channel/obj/main.o
 .debug_macro   0x0000000000000cd8       0x51 /Users/phamvanvu/HALAAcademy/01_Courses/AUTOSAR_Classic/MCAL/Pwm/exmaple/build/negative/case_06_invalid_channel/obj/main.o
 .debug_macro   0x0000000000000d29      0x103 /Users/phamvanvu/HALAAcademy/01_Courses/AUTOSAR_Classic/MCAL/Pwm/exmaple/build/negative/case_06_invalid_channel/obj/main.o
 .debug_macro   0x0000000000000e2c       0x6a /Users/phamvanvu/HALAAcademy/01_Courses/AUTOSAR_Classic/MCAL/Pwm/exmaple/build/negative/case_06_invalid_channel/obj/main.o
 .debug_macro   0x0000000000000e96      0x1df /Users/phamvanvu/HALAAcademy/01_Courses/AUTOSAR_Classic/MCAL/Pwm/exmaple/build/negative/case_06_invalid_channel/obj/main.o
 .debug_macro   0x0000000000001075       0x1c /Users/phamvanvu/HALAAcademy/01_Courses/AUTOSAR_Classic/MCAL/Pwm/exmaple/build/negative/case_06_invalid_channel/obj/main.o
 .debug_macro   0x0000000000001091       0x22 /Users/phamvanvu/HALAAcademy/01_Courses/AUTOSAR_Classic/MCAL/Pwm/exmaple/build/negative/case_06_invalid_channel/obj/main.o
 .debug_macro   0x00000000000010b3       0xbd /Users/phamvanvu/HALAAcademy/01_Courses/AUTOSAR_Classic/MCAL/Pwm/exmaple/build/negative/case_06_invalid_channel/obj/main.o
 .debug_macro   0x0000000000001170      0xd00 /Users/phamvanvu/HALAAcademy/01_Courses/AUTOSAR_Classic/MCAL/Pwm/exmaple/build/negative/case_06_invalid_channel/obj/main.o
 .debug_macro   0x0000000000001e70     0x7eb3 /Users/phamvanvu/HALAAcademy/01_Courses/AUTOSAR_Classic/MCAL/Pwm/exmaple/build/negative/case_06_invalid_channel/obj/main.o
 .debug_macro   0x0000000000009d23       0x10 /Users/phamvanvu/HALAAcademy/01_Courses/AUTOSAR_Classic/MCAL/Pwm/exmaple/build/negative/case_06_invalid_channel/obj/main.o
 .debug_macro   0x0000000000009d33       0x35 /Users/phamvanvu/HALAAcademy/01_Courses/AUTOSAR_Classic/MCAL/Pwm/exmaple/build/negative/case_06_invalid_channel/obj/main.o
 .debug_macro   0x0000000000009d68      0x70b /Users/phamvanvu/HALAAcademy/01_Courses/AUTOSAR_Classic/MCAL/Pwm/exmaple/build/negative/case_06_invalid_channel/obj/main.o
 .debug_macro   0x000000000000a473       0xde /Users/phamvanvu/HALAAcademy/01_Courses/AUTOSAR_Classic/MCAL/Pwm/exmaple/build/negative/case_06_invalid_channel/obj/pwm_example_port.o
 .debug_macro   0x000000000000a551      0x2a6 /Users/phamvanvu/HALAAcademy/01_Courses/AUTOSAR_Classic/MCAL/Pwm/exmaple/build/negative/case_06_invalid_channel/obj/pwm_example_port.o
 .debug_macro   0x000000000000a7f7      0x3e2 /Users/phamvanvu/HALAAcademy/01_Courses/AUTOSAR_Classic/MCAL/Pwm/exmaple/build/negative/case_06_invalid_channel/obj/pwm_example_port.o
 .debug_macro   0x000000000000abd9       0xf6 /Users/phamvanvu/HALAAcademy/01_Courses/AUTOSAR_Classic/MCAL/Pwm/exmaple/build/negative/case_06_invalid_channel/obj/Pwm.o
 .debug_macro   0x000000000000accf       0x40 /Users/phamvanvu/HALAAcademy/01_Courses/AUTOSAR_Classic/MCAL/Pwm/exmaple/build/negative/case_06_invalid_channel/obj/Pwm.o
 .debug_macro   0x000000000000ad0f      0x174 /Users/phamvanvu/HALAAcademy/01_Courses/AUTOSAR_Classic/MCAL/Pwm/exmaple/build/negative/case_06_invalid_channel/obj/Pwm.o
 .debug_macro   0x000000000000ae83      0x239 /Users/phamvanvu/HALAAcademy/01_Courses/AUTOSAR_Classic/MCAL/Pwm/exmaple/build/negative/case_06_invalid_channel/obj/Pwm_Lcfg.o
 .debug_macro   0x000000000000b0bc       0x64 /Users/phamvanvu/HALAAcademy/01_Courses/AUTOSAR_Classic/MCAL/Pwm/exmaple/build/negative/case_06_invalid_channel/obj/Pwm_Lcfg.o
 .debug_macro   0x000000000000b120       0x18 /Users/phamvanvu/HALAAcademy/01_Courses/AUTOSAR_Classic/MCAL/Pwm/exmaple/build/negative/case_06_invalid_channel/obj/Pwm_Lcfg.o
 .debug_macro   0x000000000000b138       0x35 /Users/phamvanvu/HALAAcademy/01_Courses/AUTOSAR_Classic/MCAL/Pwm/exmaple/build/negative/case_06_invalid_channel/obj/Pwm_Lcfg.o
 .debug_macro   0x000000000000b16d       0x34 /Users/phamvanvu/HALAAcademy/01_Courses/AUTOSAR_Classic/MCAL/Pwm/exmaple/build/negative/case_06_invalid_channel/obj/Pwm_Lcfg.o
 .debug_macro   0x000000000000b1a1       0x16 /Users/phamvanvu/HALAAcademy/01_Courses/AUTOSAR_Classic/MCAL/Pwm/exmaple/build/negative/case_06_invalid_channel/obj/Pwm_Lcfg.o
 .debug_macro   0x000000000000b1b7       0x97 /Users/phamvanvu/HALAAcademy/01_Courses/AUTOSAR_Classic/MCAL/Pwm/exmaple/build/negative/case_06_invalid_channel/obj/Pwm_Lcfg.o
 .debug_macro   0x000000000000b24e      0x341 /Users/phamvanvu/HALAAcademy/01_Courses/AUTOSAR_Classic/MCAL/Pwm/exmaple/build/negative/case_06_invalid_channel/obj/Pwm_Lcfg.o
 .debug_macro   0x000000000000b58f       0xfd /Users/phamvanvu/HALAAcademy/01_Courses/AUTOSAR_Classic/MCAL/Pwm/exmaple/build/negative/case_06_invalid_channel/obj/Pwm_Lcfg.o
 .debug_macro   0x000000000000b68c       0x10 /Users/phamvanvu/HALAAcademy/01_Courses/AUTOSAR_Classic/MCAL/Pwm/exmaple/build/negative/case_06_invalid_channel/obj/Pwm_Lcfg.o
 .debug_macro   0x000000000000b69c       0x16 /Users/phamvanvu/HALAAcademy/01_Courses/AUTOSAR_Classic/MCAL/Pwm/exmaple/build/negative/case_06_invalid_channel/obj/Pwm_Lcfg.o
 .debug_macro   0x000000000000b6b2       0x43 /Users/phamvanvu/HALAAcademy/01_Courses/AUTOSAR_Classic/MCAL/Pwm/exmaple/build/negative/case_06_invalid_channel/obj/Pwm_Lcfg.o
 .debug_macro   0x000000000000b6f5       0x34 /Users/phamvanvu/HALAAcademy/01_Courses/AUTOSAR_Classic/MCAL/Pwm/exmaple/build/negative/case_06_invalid_channel/obj/Pwm_Lcfg.o
 .debug_macro   0x000000000000b729       0x10 /Users/phamvanvu/HALAAcademy/01_Courses/AUTOSAR_Classic/MCAL/Pwm/exmaple/build/negative/case_06_invalid_channel/obj/Pwm_Lcfg.o
 .debug_macro   0x000000000000b739       0x58 /Users/phamvanvu/HALAAcademy/01_Courses/AUTOSAR_Classic/MCAL/Pwm/exmaple/build/negative/case_06_invalid_channel/obj/Pwm_Lcfg.o
 .debug_macro   0x000000000000b791      0x182 /Users/phamvanvu/HALAAcademy/01_Courses/AUTOSAR_Classic/MCAL/Pwm/exmaple/build/negative/case_06_invalid_channel/obj/Pwm_Lcfg.o
 .debug_macro   0x000000000000b913       0x10 /Users/phamvanvu/HALAAcademy/01_Courses/AUTOSAR_Classic/MCAL/Pwm/exmaple/build/negative/case_06_invalid_channel/obj/Pwm_Lcfg.o
 .debug_macro   0x000000000000b923       0x1c /Users/phamvanvu/HALAAcademy/01_Courses/AUTOSAR_Classic/MCAL/Pwm/exmaple/build/negative/case_06_invalid_channel/obj/Pwm_Lcfg.o
 .debug_macro   0x000000000000b93f       0x52 /Users/phamvanvu/HALAAcademy/01_Courses/AUTOSAR_Classic/MCAL/Pwm/exmaple/build/negative/case_06_invalid_channel/obj/Pwm_Lcfg.o
 .debug_macro   0x000000000000b991       0x22 /Users/phamvanvu/HALAAcademy/01_Courses/AUTOSAR_Classic/MCAL/Pwm/exmaple/build/negative/case_06_invalid_channel/obj/Pwm_Lcfg.o
 .debug_macro   0x000000000000b9b3       0x10 /Users/phamvanvu/HALAAcademy/01_Courses/AUTOSAR_Classic/MCAL/Pwm/exmaple/build/negative/case_06_invalid_channel/obj/Pwm_Lcfg.o
 .debug_macro   0x000000000000b9c3       0x52 /Users/phamvanvu/HALAAcademy/01_Courses/AUTOSAR_Classic/MCAL/Pwm/exmaple/build/negative/case_06_invalid_channel/obj/Pwm_Lcfg.o
 .debug_macro   0x000000000000ba15       0xd5 /Users/phamvanvu/HALAAcademy/01_Courses/AUTOSAR_Classic/MCAL/Pwm/exmaple/build/negative/case_06_invalid_channel/obj/Pwm_Lcfg.o
 .debug_macro   0x000000000000baea       0x1c /Users/phamvanvu/HALAAcademy/01_Courses/AUTOSAR_Classic/MCAL/Pwm/exmaple/build/negative/case_06_invalid_channel/obj/Pwm_Lcfg.o
 .debug_macro   0x000000000000bb06       0x3d /Users/phamvanvu/HALAAcademy/01_Courses/AUTOSAR_Classic/MCAL/Pwm/exmaple/build/negative/case_06_invalid_channel/obj/Pwm_Lcfg.o
 .debug_macro   0x000000000000bb43       0x16 /Users/phamvanvu/HALAAcademy/01_Courses/AUTOSAR_Classic/MCAL/Pwm/exmaple/build/negative/case_06_invalid_channel/obj/Pwm_Lcfg.o
 .debug_macro   0x000000000000bb59      0x16f /Users/phamvanvu/HALAAcademy/01_Courses/AUTOSAR_Classic/MCAL/Pwm/exmaple/build/negative/case_06_invalid_channel/obj/Pwm_Lcfg.o
 .debug_macro   0x000000000000bcc8       0xc8 /Users/phamvanvu/HALAAcademy/01_Courses/AUTOSAR_Classic/MCAL/Pwm/exmaple/build/negative/case_06_invalid_channel/obj/system_stm32f10x.o
 .debug_macro   0x000000000000bd90      0x1e7 /Users/phamvanvu/HALAAcademy/01_Courses/AUTOSAR_Classic/MCAL/Pwm/exmaple/build/negative/case_06_invalid_channel/obj/stm32f10x_rcc.o
 .debug_macro   0x000000000000bf77      0x3dc /Users/phamvanvu/HALAAcademy/01_Courses/AUTOSAR_Classic/MCAL/Pwm/exmaple/build/negative/case_06_invalid_channel/obj/stm32f10x_rcc.o
 .debug_macro   0x000000000000c353      0x122 /Users/phamvanvu/HALAAcademy/01_Courses/AUTOSAR_Classic/MCAL/Pwm/exmaple/build/negative/case_06_invalid_channel/obj/stm32f10x_gpio.o
 .debug_macro   0x000000000000c475       0xec /Users/phamvanvu/HALAAcademy/01_Courses/AUTOSAR_Classic/MCAL/Pwm/exmaple/build/negative/case_06_invalid_channel/obj/stm32f10x_tim.o

.debug_line     0x0000000000000000     0x311a
 .debug_line    0x0000000000000000      0x3c3 /Users/phamvanvu/HALAAcademy/01_Courses/AUTOSAR_Classic/MCAL/Pwm/exmaple/build/negative/case_06_invalid_channel/obj/main.o
 .debug_line    0x00000000000003c3      0x35c /Users/phamvanvu/HALAAcademy/01_Courses/AUTOSAR_Classic/MCAL/Pwm/exmaple/build/negative/case_06_invalid_channel/obj/pwm_example_port.o
 .debug_line    0x000000000000071f      0x617 /Users/phamvanvu/HALAAcademy/01_Courses/AUTOSAR_Classic/MCAL/Pwm/exmaple/build/negative/case_06_invalid_channel/obj/Pwm.o
 .debug_line    0x0000000000000d36      0x44a /Users/phamvanvu/HALAAcademy/01_Courses/AUTOSAR_Classic/MCAL/Pwm/exmaple/build/negative/case_06_invalid_channel/obj/Pwm_Lcfg.o
 .debug_line    0x0000000000001180      0x458 /Users/phamvanvu/HALAAcademy/01_Courses/AUTOSAR_Classic/MCAL/Pwm/exmaple/build/negative/case_06_invalid_channel/obj/system_stm32f10x.o
 .debug_line    0x00000000000015d8      0x6be /Users/phamvanvu/HALAAcademy/01_Courses/AUTOSAR_Classic/MCAL/Pwm/exmaple/build/negative/case_06_invalid_channel/obj/stm32f10x_rcc.o
 .debug_line    0x0000000000001c96      0x604 /Users/phamvanvu/HALAAcademy/01_Courses/AUTOSAR_Classic/MCAL/Pwm/exmaple/build/negative/case_06_invalid_channel/obj/stm32f10x_gpio.o
 .debug_line    0x000000000000229a      0xdc4 /Users/phamvanvu/HALAAcademy/01_Courses/AUTOSAR_Classic/MCAL/Pwm/exmaple/build/negative/case_06_invalid_channel/obj/stm32f10x_tim.o
 .debug_line    0x000000000000305e       0xbc /Users/phamvanvu/HALAAcademy/01_Courses/AUTOSAR_Classic/MCAL/Pwm/exmaple/build/negative/case_06_invalid_channel/obj/startup_stm32f10x_md.o

.debug_str      0x0000000000000000    0x431fb
 .debug_str     0x0000000000000000    0x39728 /Users/phamvanvu/HALAAcademy/01_Courses/AUTOSAR_Classic/MCAL/Pwm/exmaple/build/negative/case_06_invalid_channel/obj/main.o
                                      0x398aa (size before relaxing)
 .debug_str     0x0000000000039728     0x3d3d /Users/phamvanvu/HALAAcademy/01_Courses/AUTOSAR_Classic/MCAL/Pwm/exmaple/build/negative/case_06_invalid_channel/obj/pwm_example_port.o
                                      0x3888d (size before relaxing)
 .debug_str     0x000000000003d465      0x749 /Users/phamvanvu/HALAAcademy/01_Courses/AUTOSAR_Classic/MCAL/Pwm/exmaple/build/negative/case_06_invalid_channel/obj/Pwm.o
                                      0x3a026 (size before relaxing)
 .debug_str     0x000000000003dbae     0x38b8 /Users/phamvanvu/HALAAcademy/01_Courses/AUTOSAR_Classic/MCAL/Pwm/exmaple/build/negative/case_06_invalid_channel/obj/Pwm_Lcfg.o
                                      0x3d347 (size before relaxing)
 .debug_str     0x0000000000041466      0x1c9 /Users/phamvanvu/HALAAcademy/01_Courses/AUTOSAR_Classic/MCAL/Pwm/exmaple/build/negative/case_06_invalid_channel/obj/system_stm32f10x.o
                                      0x34d3b (size before relaxing)
 .debug_str     0x000000000004162f      0xb3f /Users/phamvanvu/HALAAcademy/01_Courses/AUTOSAR_Classic/MCAL/Pwm/exmaple/build/negative/case_06_invalid_channel/obj/stm32f10x_rcc.o
                                      0x3761c (size before relaxing)
 .debug_str     0x000000000004216e      0x4bd /Users/phamvanvu/HALAAcademy/01_Courses/AUTOSAR_Classic/MCAL/Pwm/exmaple/build/negative/case_06_invalid_channel/obj/stm32f10x_gpio.o
                                      0x38cfc (size before relaxing)
 .debug_str     0x000000000004262b      0xb61 /Users/phamvanvu/HALAAcademy/01_Courses/AUTOSAR_Classic/MCAL/Pwm/exmaple/build/negative/case_06_invalid_channel/obj/stm32f10x_tim.o
                                      0x3bfa5 (size before relaxing)
 .debug_str     0x000000000004318c       0x6f /Users/phamvanvu/HALAAcademy/01_Courses/AUTOSAR_Classic/MCAL/Pwm/exmaple/build/negative/case_06_invalid_channel/obj/startup_stm32f10x_md.o
                                         0xac (size before relaxing)

.debug_frame    0x0000000000000000     0x19cc
 .debug_frame   0x0000000000000000       0x2c /Users/phamvanvu/HALAAcademy/01_Courses/AUTOSAR_Classic/MCAL/Pwm/exmaple/build/negative/case_06_invalid_channel/obj/main.o
 .debug_frame   0x000000000000002c       0x34 /Users/phamvanvu/HALAAcademy/01_Courses/AUTOSAR_Classic/MCAL/Pwm/exmaple/build/negative/case_06_invalid_channel/obj/pwm_example_port.o
 .debug_frame   0x0000000000000060      0x2b4 /Users/phamvanvu/HALAAcademy/01_Courses/AUTOSAR_Classic/MCAL/Pwm/exmaple/build/negative/case_06_invalid_channel/obj/Pwm.o
 .debug_frame   0x0000000000000314       0x30 /Users/phamvanvu/HALAAcademy/01_Courses/AUTOSAR_Classic/MCAL/Pwm/exmaple/build/negative/case_06_invalid_channel/obj/Pwm_Lcfg.o
 .debug_frame   0x0000000000000344       0x98 /Users/phamvanvu/HALAAcademy/01_Courses/AUTOSAR_Classic/MCAL/Pwm/exmaple/build/negative/case_06_invalid_channel/obj/system_stm32f10x.o
 .debug_frame   0x00000000000003dc      0x4f4 /Users/phamvanvu/HALAAcademy/01_Courses/AUTOSAR_Classic/MCAL/Pwm/exmaple/build/negative/case_06_invalid_channel/obj/stm32f10x_rcc.o
 .debug_frame   0x00000000000008d0      0x2d0 /Users/phamvanvu/HALAAcademy/01_Courses/AUTOSAR_Classic/MCAL/Pwm/exmaple/build/negative/case_06_invalid_channel/obj/stm32f10x_gpio.o
 .debug_frame   0x0000000000000ba0      0xe2c /Users/phamvanvu/HALAAcademy/01_Courses/AUTOSAR_Classic/MCAL/Pwm/exmaple/build/negative/case_06_invalid_channel/obj/stm32f10x_tim.o

.debug_ranges   0x0000000000000000       0x20
 .debug_ranges  0x0000000000000000       0x20 /Users/phamvanvu/HALAAcademy/01_Courses/AUTOSAR_Classic/MCAL/Pwm/exmaple/build/negative/case_06_invalid_channel/obj/startup_stm32f10x_md.o
